ARM GAS  C:\Users\Lamp\AppData\Local\Temp\ccB0hp1d.s 			page 1


   1              		.cpu cortex-m3
   2              		.arch armv7-m
   3              		.fpu softvfp
   4              		.eabi_attribute 20, 1
   5              		.eabi_attribute 21, 1
   6              		.eabi_attribute 23, 3
   7              		.eabi_attribute 24, 1
   8              		.eabi_attribute 25, 1
   9              		.eabi_attribute 26, 1
  10              		.eabi_attribute 30, 1
  11              		.eabi_attribute 34, 1
  12              		.eabi_attribute 18, 4
  13              		.file	"Communication.c"
  14              		.text
  15              	.Ltext0:
  16              		.cfi_sections	.debug_frame
  17              		.file 1 "Core/Src/Applications/Src/Communication.c"
  18              		.section	.rodata.CommunicationTask.str1.4,"aMS",%progbits,1
  19              		.align	2
  20              	.LC0:
  21 0000 456E636F 		.ascii	"Encoder: %d\012\000"
  21      6465723A 
  21      2025640A 
  21      00
  22              		.section	.text.CommunicationTask,"ax",%progbits
  23              		.align	1
  24              		.global	CommunicationTask
  25              		.syntax unified
  26              		.thumb
  27              		.thumb_func
  29              	CommunicationTask:
  30              	.LFB73:
   1:Core/Src/Applications/Src/Communication.c **** #include "Communication.h"
   2:Core/Src/Applications/Src/Communication.c **** 
   3:Core/Src/Applications/Src/Communication.c **** extern SemaphoreHandle_t CommunicationSemaphore;
   4:Core/Src/Applications/Src/Communication.c **** extern QueueHandle_t encoderQueue;
   5:Core/Src/Applications/Src/Communication.c **** 
   6:Core/Src/Applications/Src/Communication.c **** int16_t countReceived;
   7:Core/Src/Applications/Src/Communication.c **** 
   8:Core/Src/Applications/Src/Communication.c **** char buffer[50];
   9:Core/Src/Applications/Src/Communication.c **** void CommunicationTask(void* vParametes)
  10:Core/Src/Applications/Src/Communication.c **** {
  31              		.loc 1 10 1 view -0
  32              		.cfi_startproc
  33              		@ Volatile: function does not return.
  34              		@ args = 0, pretend = 0, frame = 0
  35              		@ frame_needed = 0, uses_anonymous_args = 0
  36              	.LVL0:
  37              		.loc 1 10 1 is_stmt 0 view .LVU1
  38 0000 08B5     		push	{r3, lr}
  39              	.LCFI0:
  40              		.cfi_def_cfa_offset 8
  41              		.cfi_offset 3, -8
  42              		.cfi_offset 14, -4
  43 0002 10E0     		b	.L3
  44              	.LVL1:
  45              	.L5:
ARM GAS  C:\Users\Lamp\AppData\Local\Temp\ccB0hp1d.s 			page 2


  11:Core/Src/Applications/Src/Communication.c **** 	for(;;)
  12:Core/Src/Applications/Src/Communication.c **** 	{
  13:Core/Src/Applications/Src/Communication.c **** 		if (xQueueReceive(encoderQueue, &countReceived, portMAX_DELAY) == pdTRUE)
  14:Core/Src/Applications/Src/Communication.c **** 		{
  15:Core/Src/Applications/Src/Communication.c **** 			sprintf(buffer, "Encoder: %d\n", countReceived);
  46              		.loc 1 15 4 is_stmt 1 view .LVU2
  47 0004 0D4C     		ldr	r4, .L6
  48 0006 0E4B     		ldr	r3, .L6+4
  49 0008 B3F90020 		ldrsh	r2, [r3]
  50 000c 0D49     		ldr	r1, .L6+8
  51 000e 2046     		mov	r0, r4
  52 0010 FFF7FEFF 		bl	sprintf
  53              	.LVL2:
  16:Core/Src/Applications/Src/Communication.c **** 			SendString(buffer);
  54              		.loc 1 16 4 view .LVU3
  55 0014 2046     		mov	r0, r4
  56 0016 FFF7FEFF 		bl	SendString
  57              	.LVL3:
  58              	.L2:
  17:Core/Src/Applications/Src/Communication.c **** 		}
  18:Core/Src/Applications/Src/Communication.c **** 		xSemaphoreTake(CommunicationSemaphore, portMAX_DELAY);	
  59              		.loc 1 18 3 view .LVU4
  60 001a 4FF0FF31 		mov	r1, #-1
  61 001e 0A4B     		ldr	r3, .L6+12
  62 0020 1868     		ldr	r0, [r3]
  63 0022 FFF7FEFF 		bl	xQueueSemaphoreTake
  64              	.LVL4:
  11:Core/Src/Applications/Src/Communication.c **** 	{
  65              		.loc 1 11 2 view .LVU5
  66              	.L3:
  11:Core/Src/Applications/Src/Communication.c **** 	{
  67              		.loc 1 11 2 view .LVU6
  13:Core/Src/Applications/Src/Communication.c **** 		{
  68              		.loc 1 13 3 view .LVU7
  13:Core/Src/Applications/Src/Communication.c **** 		{
  69              		.loc 1 13 7 is_stmt 0 view .LVU8
  70 0026 4FF0FF32 		mov	r2, #-1
  71 002a 0549     		ldr	r1, .L6+4
  72 002c 074B     		ldr	r3, .L6+16
  73 002e 1868     		ldr	r0, [r3]
  74 0030 FFF7FEFF 		bl	xQueueReceive
  75              	.LVL5:
  13:Core/Src/Applications/Src/Communication.c **** 		{
  76              		.loc 1 13 6 discriminator 1 view .LVU9
  77 0034 0128     		cmp	r0, #1
  78 0036 E5D0     		beq	.L5
  79 0038 EFE7     		b	.L2
  80              	.L7:
  81 003a 00BF     		.align	2
  82              	.L6:
  83 003c 00000000 		.word	buffer
  84 0040 00000000 		.word	countReceived
  85 0044 00000000 		.word	.LC0
  86 0048 00000000 		.word	CommunicationSemaphore
  87 004c 00000000 		.word	encoderQueue
  88              		.cfi_endproc
  89              	.LFE73:
ARM GAS  C:\Users\Lamp\AppData\Local\Temp\ccB0hp1d.s 			page 3


  91              		.global	buffer
  92              		.section	.bss.buffer,"aw",%nobits
  93              		.align	2
  96              	buffer:
  97 0000 00000000 		.space	50
  97      00000000 
  97      00000000 
  97      00000000 
  97      00000000 
  98              		.global	countReceived
  99              		.section	.bss.countReceived,"aw",%nobits
 100              		.align	1
 103              	countReceived:
 104 0000 0000     		.space	2
 105              		.text
 106              	.Letext0:
 107              		.file 2 "C:/ArmToolChain/arm-none-eabi/include/machine/_default_types.h"
 108              		.file 3 "C:/ArmToolChain/arm-none-eabi/include/sys/_stdint.h"
 109              		.file 4 "ThirdParty/FreeRTOS/portable/GCC/ARM_CM3/portmacro.h"
 110              		.file 5 "ThirdParty/FreeRTOS/include/queue.h"
 111              		.file 6 "ThirdParty/FreeRTOS/include/semphr.h"
 112              		.file 7 "C:/ArmToolChain/arm-none-eabi/include/stdio.h"
 113              		.file 8 "Core/Src/Drivers/Inc/usart_Driver.h"
ARM GAS  C:\Users\Lamp\AppData\Local\Temp\ccB0hp1d.s 			page 4


DEFINED SYMBOLS
                            *ABS*:00000000 Communication.c
C:\Users\Lamp\AppData\Local\Temp\ccB0hp1d.s:19     .rodata.CommunicationTask.str1.4:00000000 $d
C:\Users\Lamp\AppData\Local\Temp\ccB0hp1d.s:23     .text.CommunicationTask:00000000 $t
C:\Users\Lamp\AppData\Local\Temp\ccB0hp1d.s:29     .text.CommunicationTask:00000000 CommunicationTask
C:\Users\Lamp\AppData\Local\Temp\ccB0hp1d.s:83     .text.CommunicationTask:0000003c $d
C:\Users\Lamp\AppData\Local\Temp\ccB0hp1d.s:96     .bss.buffer:00000000 buffer
C:\Users\Lamp\AppData\Local\Temp\ccB0hp1d.s:103    .bss.countReceived:00000000 countReceived
C:\Users\Lamp\AppData\Local\Temp\ccB0hp1d.s:93     .bss.buffer:00000000 $d
C:\Users\Lamp\AppData\Local\Temp\ccB0hp1d.s:100    .bss.countReceived:00000000 $d

UNDEFINED SYMBOLS
sprintf
SendString
xQueueSemaphoreTake
xQueueReceive
CommunicationSemaphore
encoderQueue
