ARM GAS  C:\Users\Lamp\AppData\Local\Temp\ccOLlJLL.s 			page 1


   1              		.cpu cortex-m3
   2              		.arch armv7-m
   3              		.fpu softvfp
   4              		.eabi_attribute 20, 1
   5              		.eabi_attribute 21, 1
   6              		.eabi_attribute 23, 3
   7              		.eabi_attribute 24, 1
   8              		.eabi_attribute 25, 1
   9              		.eabi_attribute 26, 1
  10              		.eabi_attribute 30, 1
  11              		.eabi_attribute 34, 1
  12              		.eabi_attribute 18, 4
  13              		.file	"gpio_Driver.c"
  14              		.text
  15              	.Ltext0:
  16              		.cfi_sections	.debug_frame
  17              		.file 1 "Core/Src/Drivers/Src/gpio_Driver.c"
  18              		.section	.text.LED_PC13,"ax",%progbits
  19              		.align	1
  20              		.global	LED_PC13
  21              		.syntax unified
  22              		.thumb
  23              		.thumb_func
  25              	LED_PC13:
  26              	.LFB65:
   1:Core/Src/Drivers/Src/gpio_Driver.c **** #include "gpio_Driver.h"
   2:Core/Src/Drivers/Src/gpio_Driver.c **** 
   3:Core/Src/Drivers/Src/gpio_Driver.c **** void LED_PC13(void)
   4:Core/Src/Drivers/Src/gpio_Driver.c **** {
  27              		.loc 1 4 1 view -0
  28              		.cfi_startproc
  29              		@ args = 0, pretend = 0, frame = 24
  30              		@ frame_needed = 0, uses_anonymous_args = 0
  31 0000 30B5     		push	{r4, r5, lr}
  32              	.LCFI0:
  33              		.cfi_def_cfa_offset 12
  34              		.cfi_offset 4, -12
  35              		.cfi_offset 5, -8
  36              		.cfi_offset 14, -4
  37 0002 87B0     		sub	sp, sp, #28
  38              	.LCFI1:
  39              		.cfi_def_cfa_offset 40
   5:Core/Src/Drivers/Src/gpio_Driver.c **** 	__HAL_RCC_GPIOC_CLK_ENABLE();
  40              		.loc 1 5 2 view .LVU1
  41              	.LBB2:
  42              		.loc 1 5 2 view .LVU2
  43              		.loc 1 5 2 view .LVU3
  44 0004 114B     		ldr	r3, .L3
  45 0006 9A69     		ldr	r2, [r3, #24]
  46 0008 42F01002 		orr	r2, r2, #16
  47 000c 9A61     		str	r2, [r3, #24]
  48              		.loc 1 5 2 view .LVU4
  49 000e 9B69     		ldr	r3, [r3, #24]
  50 0010 03F01003 		and	r3, r3, #16
  51 0014 0193     		str	r3, [sp, #4]
  52              		.loc 1 5 2 view .LVU5
  53 0016 019B     		ldr	r3, [sp, #4]
ARM GAS  C:\Users\Lamp\AppData\Local\Temp\ccOLlJLL.s 			page 2


  54              	.LBE2:
  55              		.loc 1 5 2 view .LVU6
   6:Core/Src/Drivers/Src/gpio_Driver.c **** 
   7:Core/Src/Drivers/Src/gpio_Driver.c **** 	GPIO_InitTypeDef GPIO_InitStruct = {0};
  56              		.loc 1 7 2 view .LVU7
  57              		.loc 1 7 19 is_stmt 0 view .LVU8
  58 0018 0024     		movs	r4, #0
  59 001a 0294     		str	r4, [sp, #8]
  60 001c 0394     		str	r4, [sp, #12]
  61 001e 0494     		str	r4, [sp, #16]
  62 0020 0594     		str	r4, [sp, #20]
   8:Core/Src/Drivers/Src/gpio_Driver.c **** 
   9:Core/Src/Drivers/Src/gpio_Driver.c **** 	HAL_GPIO_WritePin(GPIOC, GPIO_PIN_13, GPIO_PIN_SET);
  63              		.loc 1 9 2 is_stmt 1 view .LVU9
  64 0022 0B4D     		ldr	r5, .L3+4
  65 0024 0122     		movs	r2, #1
  66 0026 4FF40051 		mov	r1, #8192
  67 002a 2846     		mov	r0, r5
  68 002c FFF7FEFF 		bl	HAL_GPIO_WritePin
  69              	.LVL0:
  10:Core/Src/Drivers/Src/gpio_Driver.c **** 
  11:Core/Src/Drivers/Src/gpio_Driver.c **** 	GPIO_InitStruct.Mode	= GPIO_MODE_OUTPUT_PP;
  70              		.loc 1 11 2 view .LVU10
  71              		.loc 1 11 23 is_stmt 0 view .LVU11
  72 0030 0123     		movs	r3, #1
  73 0032 0393     		str	r3, [sp, #12]
  12:Core/Src/Drivers/Src/gpio_Driver.c **** 	GPIO_InitStruct.Pin		= GPIO_PIN_13;
  74              		.loc 1 12 2 is_stmt 1 view .LVU12
  75              		.loc 1 12 23 is_stmt 0 view .LVU13
  76 0034 4FF40053 		mov	r3, #8192
  77 0038 0293     		str	r3, [sp, #8]
  13:Core/Src/Drivers/Src/gpio_Driver.c **** 	GPIO_InitStruct.Pull 	= GPIO_NOPULL;
  78              		.loc 1 13 2 is_stmt 1 view .LVU14
  79              		.loc 1 13 24 is_stmt 0 view .LVU15
  80 003a 0494     		str	r4, [sp, #16]
  14:Core/Src/Drivers/Src/gpio_Driver.c **** 	GPIO_InitStruct.Speed	= GPIO_SPEED_FREQ_HIGH;
  81              		.loc 1 14 2 is_stmt 1 view .LVU16
  82              		.loc 1 14 24 is_stmt 0 view .LVU17
  83 003c 0323     		movs	r3, #3
  84 003e 0593     		str	r3, [sp, #20]
  15:Core/Src/Drivers/Src/gpio_Driver.c **** 
  16:Core/Src/Drivers/Src/gpio_Driver.c **** 	HAL_GPIO_Init(GPIOC, &GPIO_InitStruct);
  85              		.loc 1 16 2 is_stmt 1 view .LVU18
  86 0040 02A9     		add	r1, sp, #8
  87 0042 2846     		mov	r0, r5
  88 0044 FFF7FEFF 		bl	HAL_GPIO_Init
  89              	.LVL1:
  17:Core/Src/Drivers/Src/gpio_Driver.c **** }
  90              		.loc 1 17 1 is_stmt 0 view .LVU19
  91 0048 07B0     		add	sp, sp, #28
  92              	.LCFI2:
  93              		.cfi_def_cfa_offset 12
  94              		@ sp needed
  95 004a 30BD     		pop	{r4, r5, pc}
  96              	.L4:
  97              		.align	2
  98              	.L3:
ARM GAS  C:\Users\Lamp\AppData\Local\Temp\ccOLlJLL.s 			page 3


  99 004c 00100240 		.word	1073876992
 100 0050 00100140 		.word	1073811456
 101              		.cfi_endproc
 102              	.LFE65:
 104              		.section	.text.Rotation_Init,"ax",%progbits
 105              		.align	1
 106              		.global	Rotation_Init
 107              		.syntax unified
 108              		.thumb
 109              		.thumb_func
 111              	Rotation_Init:
 112              	.LFB66:
  18:Core/Src/Drivers/Src/gpio_Driver.c **** 
  19:Core/Src/Drivers/Src/gpio_Driver.c **** void Rotation_Init(void)
  20:Core/Src/Drivers/Src/gpio_Driver.c **** {
 113              		.loc 1 20 1 is_stmt 1 view -0
 114              		.cfi_startproc
 115              		@ args = 0, pretend = 0, frame = 24
 116              		@ frame_needed = 0, uses_anonymous_args = 0
 117 0000 F0B5     		push	{r4, r5, r6, r7, lr}
 118              	.LCFI3:
 119              		.cfi_def_cfa_offset 20
 120              		.cfi_offset 4, -20
 121              		.cfi_offset 5, -16
 122              		.cfi_offset 6, -12
 123              		.cfi_offset 7, -8
 124              		.cfi_offset 14, -4
 125 0002 87B0     		sub	sp, sp, #28
 126              	.LCFI4:
 127              		.cfi_def_cfa_offset 48
  21:Core/Src/Drivers/Src/gpio_Driver.c **** 	__HAL_RCC_GPIOB_CLK_ENABLE();
 128              		.loc 1 21 2 view .LVU21
 129              	.LBB3:
 130              		.loc 1 21 2 view .LVU22
 131              		.loc 1 21 2 view .LVU23
 132 0004 164B     		ldr	r3, .L7
 133 0006 9A69     		ldr	r2, [r3, #24]
 134 0008 42F00802 		orr	r2, r2, #8
 135 000c 9A61     		str	r2, [r3, #24]
 136              		.loc 1 21 2 view .LVU24
 137 000e 9B69     		ldr	r3, [r3, #24]
 138 0010 03F00803 		and	r3, r3, #8
 139 0014 0193     		str	r3, [sp, #4]
 140              		.loc 1 21 2 view .LVU25
 141 0016 019B     		ldr	r3, [sp, #4]
 142              	.LBE3:
 143              		.loc 1 21 2 view .LVU26
  22:Core/Src/Drivers/Src/gpio_Driver.c **** 
  23:Core/Src/Drivers/Src/gpio_Driver.c **** 	HAL_GPIO_WritePin(GPIOB, GPIO_PIN_0, GPIO_PIN_RESET);
 144              		.loc 1 23 2 view .LVU27
 145 0018 124D     		ldr	r5, .L7+4
 146 001a 0022     		movs	r2, #0
 147 001c 0121     		movs	r1, #1
 148 001e 2846     		mov	r0, r5
 149 0020 FFF7FEFF 		bl	HAL_GPIO_WritePin
 150              	.LVL2:
  24:Core/Src/Drivers/Src/gpio_Driver.c **** 	HAL_GPIO_WritePin(GPIOB, GPIO_PIN_1, GPIO_PIN_RESET);
ARM GAS  C:\Users\Lamp\AppData\Local\Temp\ccOLlJLL.s 			page 4


 151              		.loc 1 24 2 view .LVU28
 152 0024 0022     		movs	r2, #0
 153 0026 0221     		movs	r1, #2
 154 0028 2846     		mov	r0, r5
 155 002a FFF7FEFF 		bl	HAL_GPIO_WritePin
 156              	.LVL3:
  25:Core/Src/Drivers/Src/gpio_Driver.c **** 
  26:Core/Src/Drivers/Src/gpio_Driver.c **** 	GPIO_InitTypeDef GPIO_InitStruct = {0};
 157              		.loc 1 26 2 view .LVU29
 158              		.loc 1 26 19 is_stmt 0 view .LVU30
 159 002e 0024     		movs	r4, #0
 160 0030 0294     		str	r4, [sp, #8]
 161 0032 0394     		str	r4, [sp, #12]
 162 0034 0494     		str	r4, [sp, #16]
 163 0036 0594     		str	r4, [sp, #20]
  27:Core/Src/Drivers/Src/gpio_Driver.c **** 
  28:Core/Src/Drivers/Src/gpio_Driver.c **** 	GPIO_InitStruct.Mode	= GPIO_MODE_OUTPUT_PP;
 164              		.loc 1 28 2 is_stmt 1 view .LVU31
 165              		.loc 1 28 23 is_stmt 0 view .LVU32
 166 0038 0126     		movs	r6, #1
 167 003a 0396     		str	r6, [sp, #12]
  29:Core/Src/Drivers/Src/gpio_Driver.c **** 	GPIO_InitStruct.Pin		= GPIO_PIN_0;
 168              		.loc 1 29 2 is_stmt 1 view .LVU33
 169              		.loc 1 29 23 is_stmt 0 view .LVU34
 170 003c 0296     		str	r6, [sp, #8]
  30:Core/Src/Drivers/Src/gpio_Driver.c **** 	GPIO_InitStruct.Pull 	= GPIO_NOPULL;
 171              		.loc 1 30 2 is_stmt 1 view .LVU35
  31:Core/Src/Drivers/Src/gpio_Driver.c **** 	GPIO_InitStruct.Speed	= GPIO_SPEED_FREQ_HIGH;
 172              		.loc 1 31 2 view .LVU36
 173              		.loc 1 31 24 is_stmt 0 view .LVU37
 174 003e 0327     		movs	r7, #3
 175 0040 0597     		str	r7, [sp, #20]
  32:Core/Src/Drivers/Src/gpio_Driver.c **** 	HAL_GPIO_Init(GPIOB, &GPIO_InitStruct);
 176              		.loc 1 32 2 is_stmt 1 view .LVU38
 177 0042 02A9     		add	r1, sp, #8
 178 0044 2846     		mov	r0, r5
 179 0046 FFF7FEFF 		bl	HAL_GPIO_Init
 180              	.LVL4:
  33:Core/Src/Drivers/Src/gpio_Driver.c **** 
  34:Core/Src/Drivers/Src/gpio_Driver.c **** 
  35:Core/Src/Drivers/Src/gpio_Driver.c **** 	GPIO_InitStruct.Mode	= GPIO_MODE_OUTPUT_PP;
 181              		.loc 1 35 2 view .LVU39
 182              		.loc 1 35 23 is_stmt 0 view .LVU40
 183 004a 0396     		str	r6, [sp, #12]
  36:Core/Src/Drivers/Src/gpio_Driver.c **** 	GPIO_InitStruct.Pin		= GPIO_PIN_1;
 184              		.loc 1 36 2 is_stmt 1 view .LVU41
 185              		.loc 1 36 23 is_stmt 0 view .LVU42
 186 004c 0223     		movs	r3, #2
 187 004e 0293     		str	r3, [sp, #8]
  37:Core/Src/Drivers/Src/gpio_Driver.c **** 	GPIO_InitStruct.Pull 	= GPIO_NOPULL;
 188              		.loc 1 37 2 is_stmt 1 view .LVU43
 189              		.loc 1 37 24 is_stmt 0 view .LVU44
 190 0050 0494     		str	r4, [sp, #16]
  38:Core/Src/Drivers/Src/gpio_Driver.c **** 	GPIO_InitStruct.Speed	= GPIO_SPEED_FREQ_HIGH;
 191              		.loc 1 38 2 is_stmt 1 view .LVU45
 192              		.loc 1 38 24 is_stmt 0 view .LVU46
 193 0052 0597     		str	r7, [sp, #20]
ARM GAS  C:\Users\Lamp\AppData\Local\Temp\ccOLlJLL.s 			page 5


  39:Core/Src/Drivers/Src/gpio_Driver.c **** 	HAL_GPIO_Init(GPIOB, &GPIO_InitStruct);	
 194              		.loc 1 39 2 is_stmt 1 view .LVU47
 195 0054 02A9     		add	r1, sp, #8
 196 0056 2846     		mov	r0, r5
 197 0058 FFF7FEFF 		bl	HAL_GPIO_Init
 198              	.LVL5:
  40:Core/Src/Drivers/Src/gpio_Driver.c **** }
 199              		.loc 1 40 1 is_stmt 0 view .LVU48
 200 005c 07B0     		add	sp, sp, #28
 201              	.LCFI5:
 202              		.cfi_def_cfa_offset 20
 203              		@ sp needed
 204 005e F0BD     		pop	{r4, r5, r6, r7, pc}
 205              	.L8:
 206              		.align	2
 207              	.L7:
 208 0060 00100240 		.word	1073876992
 209 0064 000C0140 		.word	1073810432
 210              		.cfi_endproc
 211              	.LFE66:
 213              		.global	__aeabi_fcmpgt
 214              		.global	__aeabi_fcmplt
 215              		.section	.text.RotationMode,"ax",%progbits
 216              		.align	1
 217              		.global	RotationMode
 218              		.syntax unified
 219              		.thumb
 220              		.thumb_func
 222              	RotationMode:
 223              	.LVL6:
 224              	.LFB67:
  41:Core/Src/Drivers/Src/gpio_Driver.c **** 
  42:Core/Src/Drivers/Src/gpio_Driver.c **** void RotationMode(float U)
  43:Core/Src/Drivers/Src/gpio_Driver.c **** {
 225              		.loc 1 43 1 is_stmt 1 view -0
 226              		.cfi_startproc
 227              		@ args = 0, pretend = 0, frame = 0
 228              		@ frame_needed = 0, uses_anonymous_args = 0
 229              		.loc 1 43 1 is_stmt 0 view .LVU50
 230 0000 10B5     		push	{r4, lr}
 231              	.LCFI6:
 232              		.cfi_def_cfa_offset 8
 233              		.cfi_offset 4, -8
 234              		.cfi_offset 14, -4
 235 0002 0446     		mov	r4, r0
  44:Core/Src/Drivers/Src/gpio_Driver.c **** 	if ( U > 0)
 236              		.loc 1 44 2 is_stmt 1 view .LVU51
 237              		.loc 1 44 5 is_stmt 0 view .LVU52
 238 0004 0021     		movs	r1, #0
 239 0006 FFF7FEFF 		bl	__aeabi_fcmpgt
 240              	.LVL7:
 241              		.loc 1 44 5 view .LVU53
 242 000a 80B9     		cbnz	r0, .L20
  45:Core/Src/Drivers/Src/gpio_Driver.c **** 	{
  46:Core/Src/Drivers/Src/gpio_Driver.c **** 		HAL_GPIO_WritePin(GPIOB, GPIO_PIN_0, GPIO_PIN_SET);
  47:Core/Src/Drivers/Src/gpio_Driver.c **** 		HAL_GPIO_WritePin(GPIOB, GPIO_PIN_1, GPIO_PIN_RESET);		
  48:Core/Src/Drivers/Src/gpio_Driver.c **** 	}
ARM GAS  C:\Users\Lamp\AppData\Local\Temp\ccOLlJLL.s 			page 6


  49:Core/Src/Drivers/Src/gpio_Driver.c **** 	else if ( U < 0)
 243              		.loc 1 49 7 is_stmt 1 view .LVU54
 244              		.loc 1 49 10 is_stmt 0 view .LVU55
 245 000c 0021     		movs	r1, #0
 246 000e 2046     		mov	r0, r4
 247 0010 FFF7FEFF 		bl	__aeabi_fcmplt
 248              	.LVL8:
 249 0014 B8B9     		cbnz	r0, .L21
  50:Core/Src/Drivers/Src/gpio_Driver.c **** 	{
  51:Core/Src/Drivers/Src/gpio_Driver.c **** 		HAL_GPIO_WritePin(GPIOB, GPIO_PIN_0, GPIO_PIN_RESET);
  52:Core/Src/Drivers/Src/gpio_Driver.c **** 		HAL_GPIO_WritePin(GPIOB, GPIO_PIN_1, GPIO_PIN_SET);
  53:Core/Src/Drivers/Src/gpio_Driver.c **** 	}
  54:Core/Src/Drivers/Src/gpio_Driver.c **** 	else
  55:Core/Src/Drivers/Src/gpio_Driver.c **** 	{
  56:Core/Src/Drivers/Src/gpio_Driver.c **** 		HAL_GPIO_WritePin(GPIOB, GPIO_PIN_0, GPIO_PIN_RESET);
 250              		.loc 1 56 3 is_stmt 1 view .LVU56
 251 0016 124C     		ldr	r4, .L22
 252              	.LVL9:
 253              		.loc 1 56 3 is_stmt 0 view .LVU57
 254 0018 0022     		movs	r2, #0
 255 001a 0121     		movs	r1, #1
 256 001c 2046     		mov	r0, r4
 257 001e FFF7FEFF 		bl	HAL_GPIO_WritePin
 258              	.LVL10:
  57:Core/Src/Drivers/Src/gpio_Driver.c **** 		HAL_GPIO_WritePin(GPIOB, GPIO_PIN_1, GPIO_PIN_RESET);		
 259              		.loc 1 57 3 is_stmt 1 view .LVU58
 260 0022 0022     		movs	r2, #0
 261 0024 0221     		movs	r1, #2
 262 0026 2046     		mov	r0, r4
 263 0028 FFF7FEFF 		bl	HAL_GPIO_WritePin
 264              	.LVL11:
  58:Core/Src/Drivers/Src/gpio_Driver.c **** 	}
  59:Core/Src/Drivers/Src/gpio_Driver.c **** }...
 265              		.loc 1 59 1 is_stmt 0 view .LVU59
 266 002c 0AE0     		b	.L9
 267              	.LVL12:
 268              	.L20:
  46:Core/Src/Drivers/Src/gpio_Driver.c **** 		HAL_GPIO_WritePin(GPIOB, GPIO_PIN_0, GPIO_PIN_SET);
 269              		.loc 1 46 3 is_stmt 1 view .LVU60
 270 002e 0C4C     		ldr	r4, .L22
 271              	.LVL13:
  46:Core/Src/Drivers/Src/gpio_Driver.c **** 		HAL_GPIO_WritePin(GPIOB, GPIO_PIN_0, GPIO_PIN_SET);
 272              		.loc 1 46 3 is_stmt 0 view .LVU61
 273 0030 0122     		movs	r2, #1
 274 0032 1146     		mov	r1, r2
 275 0034 2046     		mov	r0, r4
 276 0036 FFF7FEFF 		bl	HAL_GPIO_WritePin
 277              	.LVL14:
  47:Core/Src/Drivers/Src/gpio_Driver.c **** 		HAL_GPIO_WritePin(GPIOB, GPIO_PIN_1, GPIO_PIN_RESET);		
 278              		.loc 1 47 3 is_stmt 1 view .LVU62
 279 003a 0022     		movs	r2, #0
 280 003c 0221     		movs	r1, #2
 281 003e 2046     		mov	r0, r4
 282 0040 FFF7FEFF 		bl	HAL_GPIO_WritePin
 283              	.LVL15:
 284              	.L9:
 285              		.loc 1 59 1 is_stmt 0 view .LVU63
ARM GAS  C:\Users\Lamp\AppData\Local\Temp\ccOLlJLL.s 			page 7


 286 0044 10BD     		pop	{r4, pc}
 287              	.LVL16:
 288              	.L21:
  51:Core/Src/Drivers/Src/gpio_Driver.c **** 		HAL_GPIO_WritePin(GPIOB, GPIO_PIN_0, GPIO_PIN_RESET);
 289              		.loc 1 51 3 is_stmt 1 view .LVU64
 290 0046 064C     		ldr	r4, .L22
 291              	.LVL17:
  51:Core/Src/Drivers/Src/gpio_Driver.c **** 		HAL_GPIO_WritePin(GPIOB, GPIO_PIN_0, GPIO_PIN_RESET);
 292              		.loc 1 51 3 is_stmt 0 view .LVU65
 293 0048 0022     		movs	r2, #0
 294 004a 0121     		movs	r1, #1
 295 004c 2046     		mov	r0, r4
 296 004e FFF7FEFF 		bl	HAL_GPIO_WritePin
 297              	.LVL18:
  52:Core/Src/Drivers/Src/gpio_Driver.c **** 		HAL_GPIO_WritePin(GPIOB, GPIO_PIN_1, GPIO_PIN_SET);
 298              		.loc 1 52 3 is_stmt 1 view .LVU66
 299 0052 0122     		movs	r2, #1
 300 0054 0221     		movs	r1, #2
 301 0056 2046     		mov	r0, r4
 302 0058 FFF7FEFF 		bl	HAL_GPIO_WritePin
 303              	.LVL19:
 304 005c F2E7     		b	.L9
 305              	.L23:
 306 005e 00BF     		.align	2
 307              	.L22:
 308 0060 000C0140 		.word	1073810432
 309              		.cfi_endproc
 310              	.LFE67:
 312              		.text
 313              	.Letext0:
 314              		.file 2 "C:/Arm-gnu-toolchain/arm-none-eabi/include/machine/_default_types.h"
 315              		.file 3 "C:/Arm-gnu-toolchain/arm-none-eabi/include/sys/_stdint.h"
 316              		.file 4 "Drivers/CMSIS/Device/ST/STM32F1xx/Include/stm32f103xb.h"
 317              		.file 5 "Drivers/STM32F1xx_HAL_Driver/Inc/stm32f1xx_hal_gpio.h"
ARM GAS  C:\Users\Lamp\AppData\Local\Temp\ccOLlJLL.s 			page 8

