ARM GAS  C:\Users\Lamp\AppData\Local\Temp\cc73eHji.s 			page 1


   1              		.cpu cortex-m3
   2              		.arch armv7-m
   3              		.fpu softvfp
   4              		.eabi_attribute 20, 1
   5              		.eabi_attribute 21, 1
   6              		.eabi_attribute 23, 3
   7              		.eabi_attribute 24, 1
   8              		.eabi_attribute 25, 1
   9              		.eabi_attribute 26, 1
  10              		.eabi_attribute 30, 1
  11              		.eabi_attribute 34, 1
  12              		.eabi_attribute 18, 4
  13              		.file	"SysConfig.c"
  14              		.text
  15              	.Ltext0:
  16              		.cfi_sections	.debug_frame
  17              		.file 1 "Core/Src/Drivers/Src/SysConfig.c"
  18              		.section	.text.MX_GPIO_Init,"ax",%progbits
  19              		.align	1
  20              		.global	MX_GPIO_Init
  21              		.syntax unified
  22              		.thumb
  23              		.thumb_func
  25              	MX_GPIO_Init:
  26              	.LFB66:
   1:Core/Src/Drivers/Src/SysConfig.c **** #include "SysConfig.h"
   2:Core/Src/Drivers/Src/SysConfig.c **** 
   3:Core/Src/Drivers/Src/SysConfig.c **** /**
   4:Core/Src/Drivers/Src/SysConfig.c ****   * @brief System Clock Configuration
   5:Core/Src/Drivers/Src/SysConfig.c ****   * @retval None
   6:Core/Src/Drivers/Src/SysConfig.c ****   */
   7:Core/Src/Drivers/Src/SysConfig.c **** void SystemClock_Config(void)
   8:Core/Src/Drivers/Src/SysConfig.c **** {
   9:Core/Src/Drivers/Src/SysConfig.c ****   RCC_OscInitTypeDef RCC_OscInitStruct = {0};
  10:Core/Src/Drivers/Src/SysConfig.c ****   RCC_ClkInitTypeDef RCC_ClkInitStruct = {0};
  11:Core/Src/Drivers/Src/SysConfig.c **** 
  12:Core/Src/Drivers/Src/SysConfig.c ****   /** Initializes the RCC Oscillators according to the specified parameters
  13:Core/Src/Drivers/Src/SysConfig.c ****   * in the RCC_OscInitTypeDef structure.
  14:Core/Src/Drivers/Src/SysConfig.c ****   */
  15:Core/Src/Drivers/Src/SysConfig.c ****   RCC_OscInitStruct.OscillatorType = RCC_OSCILLATORTYPE_HSE;
  16:Core/Src/Drivers/Src/SysConfig.c ****   RCC_OscInitStruct.HSEState = RCC_HSE_ON;
  17:Core/Src/Drivers/Src/SysConfig.c ****   RCC_OscInitStruct.HSEPredivValue = RCC_HSE_PREDIV_DIV1;
  18:Core/Src/Drivers/Src/SysConfig.c ****   RCC_OscInitStruct.HSIState = RCC_HSI_ON;
  19:Core/Src/Drivers/Src/SysConfig.c ****   RCC_OscInitStruct.PLL.PLLState = RCC_PLL_ON;
  20:Core/Src/Drivers/Src/SysConfig.c ****   RCC_OscInitStruct.PLL.PLLSource = RCC_PLLSOURCE_HSE;
  21:Core/Src/Drivers/Src/SysConfig.c ****   RCC_OscInitStruct.PLL.PLLMUL = RCC_PLL_MUL9;
  22:Core/Src/Drivers/Src/SysConfig.c ****   if (HAL_RCC_OscConfig(&RCC_OscInitStruct) != HAL_OK)
  23:Core/Src/Drivers/Src/SysConfig.c ****   {
  24:Core/Src/Drivers/Src/SysConfig.c ****     Error_Handler();
  25:Core/Src/Drivers/Src/SysConfig.c ****   }
  26:Core/Src/Drivers/Src/SysConfig.c **** 
  27:Core/Src/Drivers/Src/SysConfig.c ****   /** Initializes the CPU, AHB and APB buses clocks
  28:Core/Src/Drivers/Src/SysConfig.c ****   */
  29:Core/Src/Drivers/Src/SysConfig.c ****   RCC_ClkInitStruct.ClockType = RCC_CLOCKTYPE_HCLK|RCC_CLOCKTYPE_SYSCLK
  30:Core/Src/Drivers/Src/SysConfig.c ****                               |RCC_CLOCKTYPE_PCLK1|RCC_CLOCKTYPE_PCLK2;
  31:Core/Src/Drivers/Src/SysConfig.c ****   RCC_ClkInitStruct.SYSCLKSource = RCC_SYSCLKSOURCE_PLLCLK;
  32:Core/Src/Drivers/Src/SysConfig.c ****   RCC_ClkInitStruct.AHBCLKDivider = RCC_SYSCLK_DIV1;
ARM GAS  C:\Users\Lamp\AppData\Local\Temp\cc73eHji.s 			page 2


  33:Core/Src/Drivers/Src/SysConfig.c ****   RCC_ClkInitStruct.APB1CLKDivider = RCC_HCLK_DIV2;
  34:Core/Src/Drivers/Src/SysConfig.c ****   RCC_ClkInitStruct.APB2CLKDivider = RCC_HCLK_DIV1;
  35:Core/Src/Drivers/Src/SysConfig.c **** 
  36:Core/Src/Drivers/Src/SysConfig.c ****   if (HAL_RCC_ClockConfig(&RCC_ClkInitStruct, FLASH_LATENCY_2) != HAL_OK)
  37:Core/Src/Drivers/Src/SysConfig.c ****   {
  38:Core/Src/Drivers/Src/SysConfig.c ****     Error_Handler();
  39:Core/Src/Drivers/Src/SysConfig.c ****   }
  40:Core/Src/Drivers/Src/SysConfig.c **** }
  41:Core/Src/Drivers/Src/SysConfig.c **** 
  42:Core/Src/Drivers/Src/SysConfig.c **** /**
  43:Core/Src/Drivers/Src/SysConfig.c ****   * @brief GPIO Initialization Function
  44:Core/Src/Drivers/Src/SysConfig.c ****   * @param None
  45:Core/Src/Drivers/Src/SysConfig.c ****   * @retval None
  46:Core/Src/Drivers/Src/SysConfig.c ****   */
  47:Core/Src/Drivers/Src/SysConfig.c **** void MX_GPIO_Init(void)
  48:Core/Src/Drivers/Src/SysConfig.c **** {
  27              		.loc 1 48 1 view -0
  28              		.cfi_startproc
  29              		@ args = 0, pretend = 0, frame = 8
  30              		@ frame_needed = 0, uses_anonymous_args = 0
  31              		@ link register save eliminated.
  32 0000 82B0     		sub	sp, sp, #8
  33              	.LCFI0:
  34              		.cfi_def_cfa_offset 8
  49:Core/Src/Drivers/Src/SysConfig.c **** /* USER CODE BEGIN MX_GPIO_Init_1 */
  50:Core/Src/Drivers/Src/SysConfig.c **** /* USER CODE END MX_GPIO_Init_1 */
  51:Core/Src/Drivers/Src/SysConfig.c **** 
  52:Core/Src/Drivers/Src/SysConfig.c ****   /* GPIO Ports Clock Enable */
  53:Core/Src/Drivers/Src/SysConfig.c ****   __HAL_RCC_GPIOD_CLK_ENABLE();
  35              		.loc 1 53 3 view .LVU1
  36              	.LBB4:
  37              		.loc 1 53 3 view .LVU2
  38              		.loc 1 53 3 view .LVU3
  39 0002 0A4B     		ldr	r3, .L3
  40 0004 9A69     		ldr	r2, [r3, #24]
  41 0006 42F02002 		orr	r2, r2, #32
  42 000a 9A61     		str	r2, [r3, #24]
  43              		.loc 1 53 3 view .LVU4
  44 000c 9A69     		ldr	r2, [r3, #24]
  45 000e 02F02002 		and	r2, r2, #32
  46 0012 0092     		str	r2, [sp]
  47              		.loc 1 53 3 view .LVU5
  48 0014 009A     		ldr	r2, [sp]
  49              	.LBE4:
  50              		.loc 1 53 3 view .LVU6
  54:Core/Src/Drivers/Src/SysConfig.c ****   __HAL_RCC_GPIOA_CLK_ENABLE();
  51              		.loc 1 54 3 view .LVU7
  52              	.LBB5:
  53              		.loc 1 54 3 view .LVU8
  54              		.loc 1 54 3 view .LVU9
  55 0016 9A69     		ldr	r2, [r3, #24]
  56 0018 42F00402 		orr	r2, r2, #4
  57 001c 9A61     		str	r2, [r3, #24]
  58              		.loc 1 54 3 view .LVU10
  59 001e 9B69     		ldr	r3, [r3, #24]
  60 0020 03F00403 		and	r3, r3, #4
  61 0024 0193     		str	r3, [sp, #4]
ARM GAS  C:\Users\Lamp\AppData\Local\Temp\cc73eHji.s 			page 3


  62              		.loc 1 54 3 view .LVU11
  63 0026 019B     		ldr	r3, [sp, #4]
  64              	.LBE5:
  65              		.loc 1 54 3 view .LVU12
  55:Core/Src/Drivers/Src/SysConfig.c **** 
  56:Core/Src/Drivers/Src/SysConfig.c **** /* USER CODE BEGIN MX_GPIO_Init_2 */
  57:Core/Src/Drivers/Src/SysConfig.c **** /* USER CODE END MX_GPIO_Init_2 */
  58:Core/Src/Drivers/Src/SysConfig.c **** }
  66              		.loc 1 58 1 is_stmt 0 view .LVU13
  67 0028 02B0     		add	sp, sp, #8
  68              	.LCFI1:
  69              		.cfi_def_cfa_offset 0
  70              		@ sp needed
  71 002a 7047     		bx	lr
  72              	.L4:
  73              		.align	2
  74              	.L3:
  75 002c 00100240 		.word	1073876992
  76              		.cfi_endproc
  77              	.LFE66:
  79              		.section	.text.Error_Handler,"ax",%progbits
  80              		.align	1
  81              		.global	Error_Handler
  82              		.syntax unified
  83              		.thumb
  84              		.thumb_func
  86              	Error_Handler:
  87              	.LFB67:
  59:Core/Src/Drivers/Src/SysConfig.c **** 
  60:Core/Src/Drivers/Src/SysConfig.c **** /* USER CODE BEGIN 4 */
  61:Core/Src/Drivers/Src/SysConfig.c **** 
  62:Core/Src/Drivers/Src/SysConfig.c **** /* USER CODE END 4 */
  63:Core/Src/Drivers/Src/SysConfig.c **** 
  64:Core/Src/Drivers/Src/SysConfig.c **** /**
  65:Core/Src/Drivers/Src/SysConfig.c ****   * @brief  This function is executed in case of error occurrence.
  66:Core/Src/Drivers/Src/SysConfig.c ****   * @retval None
  67:Core/Src/Drivers/Src/SysConfig.c ****   */
  68:Core/Src/Drivers/Src/SysConfig.c **** void Error_Handler(void)
  69:Core/Src/Drivers/Src/SysConfig.c **** {
  88              		.loc 1 69 1 is_stmt 1 view -0
  89              		.cfi_startproc
  90              		@ Volatile: function does not return.
  91              		@ args = 0, pretend = 0, frame = 0
  92              		@ frame_needed = 0, uses_anonymous_args = 0
  93              		@ link register save eliminated.
  70:Core/Src/Drivers/Src/SysConfig.c ****   /* USER CODE BEGIN Error_Handler_Debug */
  71:Core/Src/Drivers/Src/SysConfig.c ****   /* User can add his own implementation to report the HAL error return state */
  72:Core/Src/Drivers/Src/SysConfig.c ****   __disable_irq();
  94              		.loc 1 72 3 view .LVU15
  95              	.LBB6:
  96              	.LBI6:
  97              		.file 2 "Drivers/CMSIS/Include/cmsis_gcc.h"
   1:Drivers/CMSIS/Include/cmsis_gcc.h **** /**************************************************************************//**
   2:Drivers/CMSIS/Include/cmsis_gcc.h ****  * @file     cmsis_gcc.h
   3:Drivers/CMSIS/Include/cmsis_gcc.h ****  * @brief    CMSIS compiler GCC header file
   4:Drivers/CMSIS/Include/cmsis_gcc.h ****  * @version  V5.0.4
   5:Drivers/CMSIS/Include/cmsis_gcc.h ****  * @date     09. April 2018
ARM GAS  C:\Users\Lamp\AppData\Local\Temp\cc73eHji.s 			page 4


   6:Drivers/CMSIS/Include/cmsis_gcc.h ****  ******************************************************************************/
   7:Drivers/CMSIS/Include/cmsis_gcc.h **** /*
   8:Drivers/CMSIS/Include/cmsis_gcc.h ****  * Copyright (c) 2009-2018 Arm Limited. All rights reserved.
   9:Drivers/CMSIS/Include/cmsis_gcc.h ****  *
  10:Drivers/CMSIS/Include/cmsis_gcc.h ****  * SPDX-License-Identifier: Apache-2.0
  11:Drivers/CMSIS/Include/cmsis_gcc.h ****  *
  12:Drivers/CMSIS/Include/cmsis_gcc.h ****  * Licensed under the Apache License, Version 2.0 (the License); you may
  13:Drivers/CMSIS/Include/cmsis_gcc.h ****  * not use this file except in compliance with the License.
  14:Drivers/CMSIS/Include/cmsis_gcc.h ****  * You may obtain a copy of the License at
  15:Drivers/CMSIS/Include/cmsis_gcc.h ****  *
  16:Drivers/CMSIS/Include/cmsis_gcc.h ****  * www.apache.org/licenses/LICENSE-2.0
  17:Drivers/CMSIS/Include/cmsis_gcc.h ****  *
  18:Drivers/CMSIS/Include/cmsis_gcc.h ****  * Unless required by applicable law or agreed to in writing, software
  19:Drivers/CMSIS/Include/cmsis_gcc.h ****  * distributed under the License is distributed on an AS IS BASIS, WITHOUT
  20:Drivers/CMSIS/Include/cmsis_gcc.h ****  * WARRANTIES OR CONDITIONS OF ANY KIND, either express or implied.
  21:Drivers/CMSIS/Include/cmsis_gcc.h ****  * See the License for the specific language governing permissions and
  22:Drivers/CMSIS/Include/cmsis_gcc.h ****  * limitations under the License.
  23:Drivers/CMSIS/Include/cmsis_gcc.h ****  */
  24:Drivers/CMSIS/Include/cmsis_gcc.h **** 
  25:Drivers/CMSIS/Include/cmsis_gcc.h **** #ifndef __CMSIS_GCC_H
  26:Drivers/CMSIS/Include/cmsis_gcc.h **** #define __CMSIS_GCC_H
  27:Drivers/CMSIS/Include/cmsis_gcc.h **** 
  28:Drivers/CMSIS/Include/cmsis_gcc.h **** /* ignore some GCC warnings */
  29:Drivers/CMSIS/Include/cmsis_gcc.h **** #pragma GCC diagnostic push
  30:Drivers/CMSIS/Include/cmsis_gcc.h **** #pragma GCC diagnostic ignored "-Wsign-conversion"
  31:Drivers/CMSIS/Include/cmsis_gcc.h **** #pragma GCC diagnostic ignored "-Wconversion"
  32:Drivers/CMSIS/Include/cmsis_gcc.h **** #pragma GCC diagnostic ignored "-Wunused-parameter"
  33:Drivers/CMSIS/Include/cmsis_gcc.h **** 
  34:Drivers/CMSIS/Include/cmsis_gcc.h **** /* Fallback for __has_builtin */
  35:Drivers/CMSIS/Include/cmsis_gcc.h **** #ifndef __has_builtin
  36:Drivers/CMSIS/Include/cmsis_gcc.h ****   #define __has_builtin(x) (0)
  37:Drivers/CMSIS/Include/cmsis_gcc.h **** #endif
  38:Drivers/CMSIS/Include/cmsis_gcc.h **** 
  39:Drivers/CMSIS/Include/cmsis_gcc.h **** /* CMSIS compiler specific defines */
  40:Drivers/CMSIS/Include/cmsis_gcc.h **** #ifndef   __ASM
  41:Drivers/CMSIS/Include/cmsis_gcc.h ****   #define __ASM                                  __asm
  42:Drivers/CMSIS/Include/cmsis_gcc.h **** #endif
  43:Drivers/CMSIS/Include/cmsis_gcc.h **** #ifndef   __INLINE
  44:Drivers/CMSIS/Include/cmsis_gcc.h ****   #define __INLINE                               inline
  45:Drivers/CMSIS/Include/cmsis_gcc.h **** #endif
  46:Drivers/CMSIS/Include/cmsis_gcc.h **** #ifndef   __STATIC_INLINE
  47:Drivers/CMSIS/Include/cmsis_gcc.h ****   #define __STATIC_INLINE                        static inline
  48:Drivers/CMSIS/Include/cmsis_gcc.h **** #endif
  49:Drivers/CMSIS/Include/cmsis_gcc.h **** #ifndef   __STATIC_FORCEINLINE                 
  50:Drivers/CMSIS/Include/cmsis_gcc.h ****   #define __STATIC_FORCEINLINE                   __attribute__((always_inline)) static inline
  51:Drivers/CMSIS/Include/cmsis_gcc.h **** #endif                                           
  52:Drivers/CMSIS/Include/cmsis_gcc.h **** #ifndef   __NO_RETURN
  53:Drivers/CMSIS/Include/cmsis_gcc.h ****   #define __NO_RETURN                            __attribute__((__noreturn__))
  54:Drivers/CMSIS/Include/cmsis_gcc.h **** #endif
  55:Drivers/CMSIS/Include/cmsis_gcc.h **** #ifndef   __USED
  56:Drivers/CMSIS/Include/cmsis_gcc.h ****   #define __USED                                 __attribute__((used))
  57:Drivers/CMSIS/Include/cmsis_gcc.h **** #endif
  58:Drivers/CMSIS/Include/cmsis_gcc.h **** #ifndef   __WEAK
  59:Drivers/CMSIS/Include/cmsis_gcc.h ****   #define __WEAK                                 __attribute__((weak))
  60:Drivers/CMSIS/Include/cmsis_gcc.h **** #endif
  61:Drivers/CMSIS/Include/cmsis_gcc.h **** #ifndef   __PACKED
  62:Drivers/CMSIS/Include/cmsis_gcc.h ****   #define __PACKED                               __attribute__((packed, aligned(1)))
ARM GAS  C:\Users\Lamp\AppData\Local\Temp\cc73eHji.s 			page 5


  63:Drivers/CMSIS/Include/cmsis_gcc.h **** #endif
  64:Drivers/CMSIS/Include/cmsis_gcc.h **** #ifndef   __PACKED_STRUCT
  65:Drivers/CMSIS/Include/cmsis_gcc.h ****   #define __PACKED_STRUCT                        struct __attribute__((packed, aligned(1)))
  66:Drivers/CMSIS/Include/cmsis_gcc.h **** #endif
  67:Drivers/CMSIS/Include/cmsis_gcc.h **** #ifndef   __PACKED_UNION
  68:Drivers/CMSIS/Include/cmsis_gcc.h ****   #define __PACKED_UNION                         union __attribute__((packed, aligned(1)))
  69:Drivers/CMSIS/Include/cmsis_gcc.h **** #endif
  70:Drivers/CMSIS/Include/cmsis_gcc.h **** #ifndef   __UNALIGNED_UINT32        /* deprecated */
  71:Drivers/CMSIS/Include/cmsis_gcc.h ****   #pragma GCC diagnostic push
  72:Drivers/CMSIS/Include/cmsis_gcc.h ****   #pragma GCC diagnostic ignored "-Wpacked"
  73:Drivers/CMSIS/Include/cmsis_gcc.h ****   #pragma GCC diagnostic ignored "-Wattributes"
  74:Drivers/CMSIS/Include/cmsis_gcc.h ****   struct __attribute__((packed)) T_UINT32 { uint32_t v; };
  75:Drivers/CMSIS/Include/cmsis_gcc.h ****   #pragma GCC diagnostic pop
  76:Drivers/CMSIS/Include/cmsis_gcc.h ****   #define __UNALIGNED_UINT32(x)                  (((struct T_UINT32 *)(x))->v)
  77:Drivers/CMSIS/Include/cmsis_gcc.h **** #endif
  78:Drivers/CMSIS/Include/cmsis_gcc.h **** #ifndef   __UNALIGNED_UINT16_WRITE
  79:Drivers/CMSIS/Include/cmsis_gcc.h ****   #pragma GCC diagnostic push
  80:Drivers/CMSIS/Include/cmsis_gcc.h ****   #pragma GCC diagnostic ignored "-Wpacked"
  81:Drivers/CMSIS/Include/cmsis_gcc.h ****   #pragma GCC diagnostic ignored "-Wattributes"
  82:Drivers/CMSIS/Include/cmsis_gcc.h ****   __PACKED_STRUCT T_UINT16_WRITE { uint16_t v; };
  83:Drivers/CMSIS/Include/cmsis_gcc.h ****   #pragma GCC diagnostic pop
  84:Drivers/CMSIS/Include/cmsis_gcc.h ****   #define __UNALIGNED_UINT16_WRITE(addr, val)    (void)((((struct T_UINT16_WRITE *)(void *)(addr))-
  85:Drivers/CMSIS/Include/cmsis_gcc.h **** #endif
  86:Drivers/CMSIS/Include/cmsis_gcc.h **** #ifndef   __UNALIGNED_UINT16_READ
  87:Drivers/CMSIS/Include/cmsis_gcc.h ****   #pragma GCC diagnostic push
  88:Drivers/CMSIS/Include/cmsis_gcc.h ****   #pragma GCC diagnostic ignored "-Wpacked"
  89:Drivers/CMSIS/Include/cmsis_gcc.h ****   #pragma GCC diagnostic ignored "-Wattributes"
  90:Drivers/CMSIS/Include/cmsis_gcc.h ****   __PACKED_STRUCT T_UINT16_READ { uint16_t v; };
  91:Drivers/CMSIS/Include/cmsis_gcc.h ****   #pragma GCC diagnostic pop
  92:Drivers/CMSIS/Include/cmsis_gcc.h ****   #define __UNALIGNED_UINT16_READ(addr)          (((const struct T_UINT16_READ *)(const void *)(add
  93:Drivers/CMSIS/Include/cmsis_gcc.h **** #endif
  94:Drivers/CMSIS/Include/cmsis_gcc.h **** #ifndef   __UNALIGNED_UINT32_WRITE
  95:Drivers/CMSIS/Include/cmsis_gcc.h ****   #pragma GCC diagnostic push
  96:Drivers/CMSIS/Include/cmsis_gcc.h ****   #pragma GCC diagnostic ignored "-Wpacked"
  97:Drivers/CMSIS/Include/cmsis_gcc.h ****   #pragma GCC diagnostic ignored "-Wattributes"
  98:Drivers/CMSIS/Include/cmsis_gcc.h ****   __PACKED_STRUCT T_UINT32_WRITE { uint32_t v; };
  99:Drivers/CMSIS/Include/cmsis_gcc.h ****   #pragma GCC diagnostic pop
 100:Drivers/CMSIS/Include/cmsis_gcc.h ****   #define __UNALIGNED_UINT32_WRITE(addr, val)    (void)((((struct T_UINT32_WRITE *)(void *)(addr))-
 101:Drivers/CMSIS/Include/cmsis_gcc.h **** #endif
 102:Drivers/CMSIS/Include/cmsis_gcc.h **** #ifndef   __UNALIGNED_UINT32_READ
 103:Drivers/CMSIS/Include/cmsis_gcc.h ****   #pragma GCC diagnostic push
 104:Drivers/CMSIS/Include/cmsis_gcc.h ****   #pragma GCC diagnostic ignored "-Wpacked"
 105:Drivers/CMSIS/Include/cmsis_gcc.h ****   #pragma GCC diagnostic ignored "-Wattributes"
 106:Drivers/CMSIS/Include/cmsis_gcc.h ****   __PACKED_STRUCT T_UINT32_READ { uint32_t v; };
 107:Drivers/CMSIS/Include/cmsis_gcc.h ****   #pragma GCC diagnostic pop
 108:Drivers/CMSIS/Include/cmsis_gcc.h ****   #define __UNALIGNED_UINT32_READ(addr)          (((const struct T_UINT32_READ *)(const void *)(add
 109:Drivers/CMSIS/Include/cmsis_gcc.h **** #endif
 110:Drivers/CMSIS/Include/cmsis_gcc.h **** #ifndef   __ALIGNED
 111:Drivers/CMSIS/Include/cmsis_gcc.h ****   #define __ALIGNED(x)                           __attribute__((aligned(x)))
 112:Drivers/CMSIS/Include/cmsis_gcc.h **** #endif
 113:Drivers/CMSIS/Include/cmsis_gcc.h **** #ifndef   __RESTRICT
 114:Drivers/CMSIS/Include/cmsis_gcc.h ****   #define __RESTRICT                             __restrict
 115:Drivers/CMSIS/Include/cmsis_gcc.h **** #endif
 116:Drivers/CMSIS/Include/cmsis_gcc.h **** 
 117:Drivers/CMSIS/Include/cmsis_gcc.h **** 
 118:Drivers/CMSIS/Include/cmsis_gcc.h **** /* ###########################  Core Function Access  ########################### */
 119:Drivers/CMSIS/Include/cmsis_gcc.h **** /** \ingroup  CMSIS_Core_FunctionInterface
ARM GAS  C:\Users\Lamp\AppData\Local\Temp\cc73eHji.s 			page 6


 120:Drivers/CMSIS/Include/cmsis_gcc.h ****     \defgroup CMSIS_Core_RegAccFunctions CMSIS Core Register Access Functions
 121:Drivers/CMSIS/Include/cmsis_gcc.h ****   @{
 122:Drivers/CMSIS/Include/cmsis_gcc.h ****  */
 123:Drivers/CMSIS/Include/cmsis_gcc.h **** 
 124:Drivers/CMSIS/Include/cmsis_gcc.h **** /**
 125:Drivers/CMSIS/Include/cmsis_gcc.h ****   \brief   Enable IRQ Interrupts
 126:Drivers/CMSIS/Include/cmsis_gcc.h ****   \details Enables IRQ interrupts by clearing the I-bit in the CPSR.
 127:Drivers/CMSIS/Include/cmsis_gcc.h ****            Can only be executed in Privileged modes.
 128:Drivers/CMSIS/Include/cmsis_gcc.h ****  */
 129:Drivers/CMSIS/Include/cmsis_gcc.h **** __STATIC_FORCEINLINE void __enable_irq(void)
 130:Drivers/CMSIS/Include/cmsis_gcc.h **** {
 131:Drivers/CMSIS/Include/cmsis_gcc.h ****   __ASM volatile ("cpsie i" : : : "memory");
 132:Drivers/CMSIS/Include/cmsis_gcc.h **** }
 133:Drivers/CMSIS/Include/cmsis_gcc.h **** 
 134:Drivers/CMSIS/Include/cmsis_gcc.h **** 
 135:Drivers/CMSIS/Include/cmsis_gcc.h **** /**
 136:Drivers/CMSIS/Include/cmsis_gcc.h ****   \brief   Disable IRQ Interrupts
 137:Drivers/CMSIS/Include/cmsis_gcc.h ****   \details Disables IRQ interrupts by setting the I-bit in the CPSR.
 138:Drivers/CMSIS/Include/cmsis_gcc.h ****            Can only be executed in Privileged modes.
 139:Drivers/CMSIS/Include/cmsis_gcc.h ****  */
 140:Drivers/CMSIS/Include/cmsis_gcc.h **** __STATIC_FORCEINLINE void __disable_irq(void)
  98              		.loc 2 140 27 view .LVU16
  99              	.LBB7:
 141:Drivers/CMSIS/Include/cmsis_gcc.h **** {
 142:Drivers/CMSIS/Include/cmsis_gcc.h ****   __ASM volatile ("cpsid i" : : : "memory");
 100              		.loc 2 142 3 view .LVU17
 101              		.syntax unified
 102              	@ 142 "Drivers/CMSIS/Include/cmsis_gcc.h" 1
 103 0000 72B6     		cpsid i
 104              	@ 0 "" 2
 105              		.thumb
 106              		.syntax unified
 107              	.L6:
 108              	.LBE7:
 109              	.LBE6:
  73:Core/Src/Drivers/Src/SysConfig.c ****   while (1)
 110              		.loc 1 73 3 view .LVU18
  74:Core/Src/Drivers/Src/SysConfig.c ****   {
  75:Core/Src/Drivers/Src/SysConfig.c ****   }
 111              		.loc 1 75 3 view .LVU19
  73:Core/Src/Drivers/Src/SysConfig.c ****   while (1)
 112              		.loc 1 73 9 view .LVU20
 113 0002 FEE7     		b	.L6
 114              		.cfi_endproc
 115              	.LFE67:
 117              		.section	.text.SystemClock_Config,"ax",%progbits
 118              		.align	1
 119              		.global	SystemClock_Config
 120              		.syntax unified
 121              		.thumb
 122              		.thumb_func
 124              	SystemClock_Config:
 125              	.LFB65:
   8:Core/Src/Drivers/Src/SysConfig.c ****   RCC_OscInitTypeDef RCC_OscInitStruct = {0};
 126              		.loc 1 8 1 view -0
 127              		.cfi_startproc
 128              		@ args = 0, pretend = 0, frame = 64
ARM GAS  C:\Users\Lamp\AppData\Local\Temp\cc73eHji.s 			page 7


 129              		@ frame_needed = 0, uses_anonymous_args = 0
 130 0000 00B5     		push	{lr}
 131              	.LCFI2:
 132              		.cfi_def_cfa_offset 4
 133              		.cfi_offset 14, -4
 134 0002 91B0     		sub	sp, sp, #68
 135              	.LCFI3:
 136              		.cfi_def_cfa_offset 72
   9:Core/Src/Drivers/Src/SysConfig.c ****   RCC_ClkInitTypeDef RCC_ClkInitStruct = {0};
 137              		.loc 1 9 3 view .LVU22
   9:Core/Src/Drivers/Src/SysConfig.c ****   RCC_ClkInitTypeDef RCC_ClkInitStruct = {0};
 138              		.loc 1 9 22 is_stmt 0 view .LVU23
 139 0004 2822     		movs	r2, #40
 140 0006 0021     		movs	r1, #0
 141 0008 06A8     		add	r0, sp, #24
 142 000a FFF7FEFF 		bl	memset
 143              	.LVL0:
  10:Core/Src/Drivers/Src/SysConfig.c **** 
 144              		.loc 1 10 3 is_stmt 1 view .LVU24
  10:Core/Src/Drivers/Src/SysConfig.c **** 
 145              		.loc 1 10 22 is_stmt 0 view .LVU25
 146 000e 0023     		movs	r3, #0
 147 0010 0193     		str	r3, [sp, #4]
 148 0012 0293     		str	r3, [sp, #8]
 149 0014 0393     		str	r3, [sp, #12]
 150 0016 0493     		str	r3, [sp, #16]
 151 0018 0593     		str	r3, [sp, #20]
  15:Core/Src/Drivers/Src/SysConfig.c ****   RCC_OscInitStruct.HSEState = RCC_HSE_ON;
 152              		.loc 1 15 3 is_stmt 1 view .LVU26
  15:Core/Src/Drivers/Src/SysConfig.c ****   RCC_OscInitStruct.HSEState = RCC_HSE_ON;
 153              		.loc 1 15 36 is_stmt 0 view .LVU27
 154 001a 0122     		movs	r2, #1
 155 001c 0692     		str	r2, [sp, #24]
  16:Core/Src/Drivers/Src/SysConfig.c ****   RCC_OscInitStruct.HSEPredivValue = RCC_HSE_PREDIV_DIV1;
 156              		.loc 1 16 3 is_stmt 1 view .LVU28
  16:Core/Src/Drivers/Src/SysConfig.c ****   RCC_OscInitStruct.HSEPredivValue = RCC_HSE_PREDIV_DIV1;
 157              		.loc 1 16 30 is_stmt 0 view .LVU29
 158 001e 4FF48033 		mov	r3, #65536
 159 0022 0793     		str	r3, [sp, #28]
  17:Core/Src/Drivers/Src/SysConfig.c ****   RCC_OscInitStruct.HSIState = RCC_HSI_ON;
 160              		.loc 1 17 3 is_stmt 1 view .LVU30
  18:Core/Src/Drivers/Src/SysConfig.c ****   RCC_OscInitStruct.PLL.PLLState = RCC_PLL_ON;
 161              		.loc 1 18 3 view .LVU31
  18:Core/Src/Drivers/Src/SysConfig.c ****   RCC_OscInitStruct.PLL.PLLState = RCC_PLL_ON;
 162              		.loc 1 18 30 is_stmt 0 view .LVU32
 163 0024 0A92     		str	r2, [sp, #40]
  19:Core/Src/Drivers/Src/SysConfig.c ****   RCC_OscInitStruct.PLL.PLLSource = RCC_PLLSOURCE_HSE;
 164              		.loc 1 19 3 is_stmt 1 view .LVU33
  19:Core/Src/Drivers/Src/SysConfig.c ****   RCC_OscInitStruct.PLL.PLLSource = RCC_PLLSOURCE_HSE;
 165              		.loc 1 19 34 is_stmt 0 view .LVU34
 166 0026 0222     		movs	r2, #2
 167 0028 0D92     		str	r2, [sp, #52]
  20:Core/Src/Drivers/Src/SysConfig.c ****   RCC_OscInitStruct.PLL.PLLMUL = RCC_PLL_MUL9;
 168              		.loc 1 20 3 is_stmt 1 view .LVU35
  20:Core/Src/Drivers/Src/SysConfig.c ****   RCC_OscInitStruct.PLL.PLLMUL = RCC_PLL_MUL9;
 169              		.loc 1 20 35 is_stmt 0 view .LVU36
 170 002a 0E93     		str	r3, [sp, #56]
ARM GAS  C:\Users\Lamp\AppData\Local\Temp\cc73eHji.s 			page 8


  21:Core/Src/Drivers/Src/SysConfig.c ****   if (HAL_RCC_OscConfig(&RCC_OscInitStruct) != HAL_OK)
 171              		.loc 1 21 3 is_stmt 1 view .LVU37
  21:Core/Src/Drivers/Src/SysConfig.c ****   if (HAL_RCC_OscConfig(&RCC_OscInitStruct) != HAL_OK)
 172              		.loc 1 21 32 is_stmt 0 view .LVU38
 173 002c 4FF4E013 		mov	r3, #1835008
 174 0030 0F93     		str	r3, [sp, #60]
  22:Core/Src/Drivers/Src/SysConfig.c ****   {
 175              		.loc 1 22 3 is_stmt 1 view .LVU39
  22:Core/Src/Drivers/Src/SysConfig.c ****   {
 176              		.loc 1 22 7 is_stmt 0 view .LVU40
 177 0032 06A8     		add	r0, sp, #24
 178 0034 FFF7FEFF 		bl	HAL_RCC_OscConfig
 179              	.LVL1:
  22:Core/Src/Drivers/Src/SysConfig.c ****   {
 180              		.loc 1 22 6 discriminator 1 view .LVU41
 181 0038 80B9     		cbnz	r0, .L11
  29:Core/Src/Drivers/Src/SysConfig.c ****                               |RCC_CLOCKTYPE_PCLK1|RCC_CLOCKTYPE_PCLK2;
 182              		.loc 1 29 3 is_stmt 1 view .LVU42
  29:Core/Src/Drivers/Src/SysConfig.c ****                               |RCC_CLOCKTYPE_PCLK1|RCC_CLOCKTYPE_PCLK2;
 183              		.loc 1 29 31 is_stmt 0 view .LVU43
 184 003a 0F23     		movs	r3, #15
 185 003c 0193     		str	r3, [sp, #4]
  31:Core/Src/Drivers/Src/SysConfig.c ****   RCC_ClkInitStruct.AHBCLKDivider = RCC_SYSCLK_DIV1;
 186              		.loc 1 31 3 is_stmt 1 view .LVU44
  31:Core/Src/Drivers/Src/SysConfig.c ****   RCC_ClkInitStruct.AHBCLKDivider = RCC_SYSCLK_DIV1;
 187              		.loc 1 31 34 is_stmt 0 view .LVU45
 188 003e 0221     		movs	r1, #2
 189 0040 0291     		str	r1, [sp, #8]
  32:Core/Src/Drivers/Src/SysConfig.c ****   RCC_ClkInitStruct.APB1CLKDivider = RCC_HCLK_DIV2;
 190              		.loc 1 32 3 is_stmt 1 view .LVU46
  32:Core/Src/Drivers/Src/SysConfig.c ****   RCC_ClkInitStruct.APB1CLKDivider = RCC_HCLK_DIV2;
 191              		.loc 1 32 35 is_stmt 0 view .LVU47
 192 0042 0023     		movs	r3, #0
 193 0044 0393     		str	r3, [sp, #12]
  33:Core/Src/Drivers/Src/SysConfig.c ****   RCC_ClkInitStruct.APB2CLKDivider = RCC_HCLK_DIV1;
 194              		.loc 1 33 3 is_stmt 1 view .LVU48
  33:Core/Src/Drivers/Src/SysConfig.c ****   RCC_ClkInitStruct.APB2CLKDivider = RCC_HCLK_DIV1;
 195              		.loc 1 33 36 is_stmt 0 view .LVU49
 196 0046 4FF48062 		mov	r2, #1024
 197 004a 0492     		str	r2, [sp, #16]
  34:Core/Src/Drivers/Src/SysConfig.c **** 
 198              		.loc 1 34 3 is_stmt 1 view .LVU50
  34:Core/Src/Drivers/Src/SysConfig.c **** 
 199              		.loc 1 34 36 is_stmt 0 view .LVU51
 200 004c 0593     		str	r3, [sp, #20]
  36:Core/Src/Drivers/Src/SysConfig.c ****   {
 201              		.loc 1 36 3 is_stmt 1 view .LVU52
  36:Core/Src/Drivers/Src/SysConfig.c ****   {
 202              		.loc 1 36 7 is_stmt 0 view .LVU53
 203 004e 01A8     		add	r0, sp, #4
 204 0050 FFF7FEFF 		bl	HAL_RCC_ClockConfig
 205              	.LVL2:
  36:Core/Src/Drivers/Src/SysConfig.c ****   {
 206              		.loc 1 36 6 discriminator 1 view .LVU54
 207 0054 20B9     		cbnz	r0, .L12
  40:Core/Src/Drivers/Src/SysConfig.c **** 
 208              		.loc 1 40 1 view .LVU55
ARM GAS  C:\Users\Lamp\AppData\Local\Temp\cc73eHji.s 			page 9


 209 0056 11B0     		add	sp, sp, #68
 210              	.LCFI4:
 211              		.cfi_remember_state
 212              		.cfi_def_cfa_offset 4
 213              		@ sp needed
 214 0058 5DF804FB 		ldr	pc, [sp], #4
 215              	.L11:
 216              	.LCFI5:
 217              		.cfi_restore_state
  24:Core/Src/Drivers/Src/SysConfig.c ****   }
 218              		.loc 1 24 5 is_stmt 1 view .LVU56
 219 005c FFF7FEFF 		bl	Error_Handler
 220              	.LVL3:
 221              	.L12:
  38:Core/Src/Drivers/Src/SysConfig.c ****   }
 222              		.loc 1 38 5 view .LVU57
 223 0060 FFF7FEFF 		bl	Error_Handler
 224              	.LVL4:
 225              		.cfi_endproc
 226              	.LFE65:
 228              		.text
 229              	.Letext0:
 230              		.file 3 "C:/ArmToolChain/arm-none-eabi/include/machine/_default_types.h"
 231              		.file 4 "C:/ArmToolChain/arm-none-eabi/include/sys/_stdint.h"
 232              		.file 5 "Drivers/CMSIS/Device/ST/STM32F1xx/Include/stm32f103xb.h"
 233              		.file 6 "Drivers/STM32F1xx_HAL_Driver/Inc/stm32f1xx_hal_def.h"
 234              		.file 7 "Drivers/STM32F1xx_HAL_Driver/Inc/stm32f1xx_hal_rcc.h"
 235              		.file 8 "Drivers/STM32F1xx_HAL_Driver/Inc/stm32f1xx_hal_rcc_ex.h"
 236              		.file 9 "<built-in>"
ARM GAS  C:\Users\Lamp\AppData\Local\Temp\cc73eHji.s 			page 10

