ARM GAS  C:\Users\Lamp\AppData\Local\Temp\cczn73za.s 			page 1


   1              		.cpu cortex-m3
   2              		.arch armv7-m
   3              		.fpu softvfp
   4              		.eabi_attribute 20, 1
   5              		.eabi_attribute 21, 1
   6              		.eabi_attribute 23, 3
   7              		.eabi_attribute 24, 1
   8              		.eabi_attribute 25, 1
   9              		.eabi_attribute 26, 1
  10              		.eabi_attribute 30, 1
  11              		.eabi_attribute 34, 1
  12              		.eabi_attribute 18, 4
  13              		.file	"usart_Driver.c"
  14              		.text
  15              	.Ltext0:
  16              		.cfi_sections	.debug_frame
  17              		.file 1 "Core/Src/Drivers/Src/usart_Driver.c"
  18              		.section	.text.USART1_IRQHandler,"ax",%progbits
  19              		.align	1
  20              		.global	USART1_IRQHandler
  21              		.syntax unified
  22              		.thumb
  23              		.thumb_func
  25              	USART1_IRQHandler:
  26              	.LFB70:
   1:Core/Src/Drivers/Src/usart_Driver.c **** #include "usart_Driver.h"
   2:Core/Src/Drivers/Src/usart_Driver.c **** #include "FreeRTOS.h"
   3:Core/Src/Drivers/Src/usart_Driver.c **** #include "queue.h"
   4:Core/Src/Drivers/Src/usart_Driver.c **** 
   5:Core/Src/Drivers/Src/usart_Driver.c **** UART_HandleTypeDef huart1;
   6:Core/Src/Drivers/Src/usart_Driver.c **** 
   7:Core/Src/Drivers/Src/usart_Driver.c **** extern QueueHandle_t UARTQueue;
   8:Core/Src/Drivers/Src/usart_Driver.c **** 
   9:Core/Src/Drivers/Src/usart_Driver.c **** char Buffer[100];
  10:Core/Src/Drivers/Src/usart_Driver.c **** uint8_t BufferIndex = 0;
  11:Core/Src/Drivers/Src/usart_Driver.c **** 
  12:Core/Src/Drivers/Src/usart_Driver.c **** void USART1_IRQHandler(void)
  13:Core/Src/Drivers/Src/usart_Driver.c **** {
  27              		.loc 1 13 1 view -0
  28              		.cfi_startproc
  29              		@ args = 0, pretend = 0, frame = 8
  30              		@ frame_needed = 0, uses_anonymous_args = 0
  31 0000 70B5     		push	{r4, r5, r6, lr}
  32              	.LCFI0:
  33              		.cfi_def_cfa_offset 16
  34              		.cfi_offset 4, -16
  35              		.cfi_offset 5, -12
  36              		.cfi_offset 6, -8
  37              		.cfi_offset 14, -4
  38 0002 82B0     		sub	sp, sp, #8
  39              	.LCFI1:
  40              		.cfi_def_cfa_offset 24
  14:Core/Src/Drivers/Src/usart_Driver.c **** 	uint8_t ReceivedData;
  41              		.loc 1 14 2 view .LVU1
  15:Core/Src/Drivers/Src/usart_Driver.c **** 	HAL_UART_Receive(&huart1, &ReceivedData, 1, HAL_MAX_DELAY);
  42              		.loc 1 15 2 view .LVU2
  43 0004 4FF0FF33 		mov	r3, #-1
ARM GAS  C:\Users\Lamp\AppData\Local\Temp\cczn73za.s 			page 2


  44 0008 0122     		movs	r2, #1
  45 000a 0DF10701 		add	r1, sp, #7
  46 000e 1848     		ldr	r0, .L7
  47 0010 FFF7FEFF 		bl	HAL_UART_Receive
  48              	.LVL0:
  16:Core/Src/Drivers/Src/usart_Driver.c **** 
  17:Core/Src/Drivers/Src/usart_Driver.c **** 	if(ReceivedData == 'S')
  49              		.loc 1 17 2 view .LVU3
  50              		.loc 1 17 18 is_stmt 0 view .LVU4
  51 0014 9DF80730 		ldrb	r3, [sp, #7]	@ zero_extendqisi2
  52              		.loc 1 17 4 view .LVU5
  53 0018 532B     		cmp	r3, #83
  54 001a 07D0     		beq	.L6
  18:Core/Src/Drivers/Src/usart_Driver.c **** 	{ 
  19:Core/Src/Drivers/Src/usart_Driver.c **** 		Buffer[BufferIndex] = '\0';
  20:Core/Src/Drivers/Src/usart_Driver.c **** 
  21:Core/Src/Drivers/Src/usart_Driver.c **** 		BaseType_t xHigherPriorityTaskWoken = pdFALSE;
  22:Core/Src/Drivers/Src/usart_Driver.c **** 		xQueueSendFromISR(UARTQueue, Buffer, &xHigherPriorityTaskWoken);
  23:Core/Src/Drivers/Src/usart_Driver.c **** 
  24:Core/Src/Drivers/Src/usart_Driver.c **** 		BufferIndex = 0;
  25:Core/Src/Drivers/Src/usart_Driver.c **** 		memset(Buffer, '\0', sizeof(Buffer));
  26:Core/Src/Drivers/Src/usart_Driver.c **** 
  27:Core/Src/Drivers/Src/usart_Driver.c **** 		portEND_SWITCHING_ISR(xHigherPriorityTaskWoken);
  28:Core/Src/Drivers/Src/usart_Driver.c **** 	}
  29:Core/Src/Drivers/Src/usart_Driver.c **** 	else Buffer[BufferIndex++] = ReceivedData;
  55              		.loc 1 29 7 is_stmt 1 view .LVU6
  56              		.loc 1 29 25 is_stmt 0 view .LVU7
  57 001c 1549     		ldr	r1, .L7+4
  58 001e 0A78     		ldrb	r2, [r1]	@ zero_extendqisi2
  59 0020 501C     		adds	r0, r2, #1
  60 0022 0870     		strb	r0, [r1]
  61              		.loc 1 29 29 view .LVU8
  62 0024 1449     		ldr	r1, .L7+8
  63 0026 8B54     		strb	r3, [r1, r2]
  64              	.L1:
  30:Core/Src/Drivers/Src/usart_Driver.c **** 
  31:Core/Src/Drivers/Src/usart_Driver.c **** 	// __HAL_UART_CLEAR_FLAG(&huart1, UART_FLAG_RXNE);
  32:Core/Src/Drivers/Src/usart_Driver.c **** }
  65              		.loc 1 32 1 view .LVU9
  66 0028 02B0     		add	sp, sp, #8
  67              	.LCFI2:
  68              		.cfi_remember_state
  69              		.cfi_def_cfa_offset 16
  70              		@ sp needed
  71 002a 70BD     		pop	{r4, r5, r6, pc}
  72              	.L6:
  73              	.LCFI3:
  74              		.cfi_restore_state
  75              	.LBB2:
  19:Core/Src/Drivers/Src/usart_Driver.c **** 
  76              		.loc 1 19 3 is_stmt 1 view .LVU10
  19:Core/Src/Drivers/Src/usart_Driver.c **** 
  77              		.loc 1 19 9 is_stmt 0 view .LVU11
  78 002c 114E     		ldr	r6, .L7+4
  79 002e 3378     		ldrb	r3, [r6]	@ zero_extendqisi2
  19:Core/Src/Drivers/Src/usart_Driver.c **** 
  80              		.loc 1 19 23 view .LVU12
ARM GAS  C:\Users\Lamp\AppData\Local\Temp\cczn73za.s 			page 3


  81 0030 114D     		ldr	r5, .L7+8
  82 0032 0024     		movs	r4, #0
  83 0034 EC54     		strb	r4, [r5, r3]
  21:Core/Src/Drivers/Src/usart_Driver.c **** 		xQueueSendFromISR(UARTQueue, Buffer, &xHigherPriorityTaskWoken);
  84              		.loc 1 21 3 is_stmt 1 view .LVU13
  21:Core/Src/Drivers/Src/usart_Driver.c **** 		xQueueSendFromISR(UARTQueue, Buffer, &xHigherPriorityTaskWoken);
  85              		.loc 1 21 14 is_stmt 0 view .LVU14
  86 0036 0094     		str	r4, [sp]
  22:Core/Src/Drivers/Src/usart_Driver.c **** 
  87              		.loc 1 22 3 is_stmt 1 view .LVU15
  88 0038 2346     		mov	r3, r4
  89 003a 6A46     		mov	r2, sp
  90 003c 2946     		mov	r1, r5
  91 003e 0F48     		ldr	r0, .L7+12
  92 0040 0068     		ldr	r0, [r0]
  93 0042 FFF7FEFF 		bl	xQueueGenericSendFromISR
  94              	.LVL1:
  24:Core/Src/Drivers/Src/usart_Driver.c **** 		memset(Buffer, '\0', sizeof(Buffer));
  95              		.loc 1 24 3 view .LVU16
  24:Core/Src/Drivers/Src/usart_Driver.c **** 		memset(Buffer, '\0', sizeof(Buffer));
  96              		.loc 1 24 15 is_stmt 0 view .LVU17
  97 0046 3470     		strb	r4, [r6]
  25:Core/Src/Drivers/Src/usart_Driver.c **** 
  98              		.loc 1 25 3 is_stmt 1 view .LVU18
  99 0048 6422     		movs	r2, #100
 100 004a 2146     		mov	r1, r4
 101 004c 2846     		mov	r0, r5
 102 004e FFF7FEFF 		bl	memset
 103              	.LVL2:
  27:Core/Src/Drivers/Src/usart_Driver.c **** 	}
 104              		.loc 1 27 3 view .LVU19
  27:Core/Src/Drivers/Src/usart_Driver.c **** 	}
 105              		.loc 1 27 3 view .LVU20
 106 0052 009B     		ldr	r3, [sp]
 107 0054 002B     		cmp	r3, #0
 108 0056 E7D0     		beq	.L1
  27:Core/Src/Drivers/Src/usart_Driver.c **** 	}
 109              		.loc 1 27 3 discriminator 1 view .LVU21
 110 0058 4FF0E023 		mov	r3, #-536813568
 111 005c 4FF08052 		mov	r2, #268435456
 112 0060 C3F8042D 		str	r2, [r3, #3332]
  27:Core/Src/Drivers/Src/usart_Driver.c **** 	}
 113              		.loc 1 27 3 discriminator 1 view .LVU22
 114              		.syntax unified
 115              	@ 27 "Core/Src/Drivers/Src/usart_Driver.c" 1
 116 0064 BFF34F8F 		dsb
 117              	@ 0 "" 2
  27:Core/Src/Drivers/Src/usart_Driver.c **** 	}
 118              		.loc 1 27 3 discriminator 1 view .LVU23
 119              	@ 27 "Core/Src/Drivers/Src/usart_Driver.c" 1
 120 0068 BFF36F8F 		isb
 121              	@ 0 "" 2
  27:Core/Src/Drivers/Src/usart_Driver.c **** 	}
 122              		.loc 1 27 3 discriminator 3 view .LVU24
  27:Core/Src/Drivers/Src/usart_Driver.c **** 	}
 123              		.loc 1 27 3 discriminator 3 view .LVU25
 124              		.thumb
ARM GAS  C:\Users\Lamp\AppData\Local\Temp\cczn73za.s 			page 4


 125              		.syntax unified
 126 006c DCE7     		b	.L1
 127              	.L8:
 128 006e 00BF     		.align	2
 129              	.L7:
 130 0070 00000000 		.word	huart1
 131 0074 00000000 		.word	BufferIndex
 132 0078 00000000 		.word	Buffer
 133 007c 00000000 		.word	UARTQueue
 134              	.LBE2:
 135              		.cfi_endproc
 136              	.LFE70:
 138              		.section	.text.SendString,"ax",%progbits
 139              		.align	1
 140              		.global	SendString
 141              		.syntax unified
 142              		.thumb
 143              		.thumb_func
 145              	SendString:
 146              	.LVL3:
 147              	.LFB71:
  33:Core/Src/Drivers/Src/usart_Driver.c **** 
  34:Core/Src/Drivers/Src/usart_Driver.c **** void SendString(char* str)
  35:Core/Src/Drivers/Src/usart_Driver.c **** {
 148              		.loc 1 35 1 view -0
 149              		.cfi_startproc
 150              		@ args = 0, pretend = 0, frame = 0
 151              		@ frame_needed = 0, uses_anonymous_args = 0
 152              		.loc 1 35 1 is_stmt 0 view .LVU27
 153 0000 10B5     		push	{r4, lr}
 154              	.LCFI4:
 155              		.cfi_def_cfa_offset 8
 156              		.cfi_offset 4, -8
 157              		.cfi_offset 14, -4
 158 0002 0446     		mov	r4, r0
  36:Core/Src/Drivers/Src/usart_Driver.c ****     uint16_t length = strlen(str);
 159              		.loc 1 36 5 is_stmt 1 view .LVU28
 160              		.loc 1 36 23 is_stmt 0 view .LVU29
 161 0004 FFF7FEFF 		bl	strlen
 162              	.LVL4:
  37:Core/Src/Drivers/Src/usart_Driver.c **** 
  38:Core/Src/Drivers/Src/usart_Driver.c ****     HAL_UART_Transmit(&huart1, (uint8_t*)str, length, HAL_MAX_DELAY);
 163              		.loc 1 38 5 is_stmt 1 view .LVU30
 164 0008 4FF0FF33 		mov	r3, #-1
 165 000c 82B2     		uxth	r2, r0
 166 000e 2146     		mov	r1, r4
 167 0010 0148     		ldr	r0, .L11
 168              	.LVL5:
 169              		.loc 1 38 5 is_stmt 0 view .LVU31
 170 0012 FFF7FEFF 		bl	HAL_UART_Transmit
 171              	.LVL6:
  39:Core/Src/Drivers/Src/usart_Driver.c **** }
 172              		.loc 1 39 1 view .LVU32
 173 0016 10BD     		pop	{r4, pc}
 174              	.LVL7:
 175              	.L12:
 176              		.loc 1 39 1 view .LVU33
ARM GAS  C:\Users\Lamp\AppData\Local\Temp\cczn73za.s 			page 5


 177              		.align	2
 178              	.L11:
 179 0018 00000000 		.word	huart1
 180              		.cfi_endproc
 181              	.LFE71:
 183              		.section	.text.USART1_Init,"ax",%progbits
 184              		.align	1
 185              		.global	USART1_Init
 186              		.syntax unified
 187              		.thumb
 188              		.thumb_func
 190              	USART1_Init:
 191              	.LFB72:
  40:Core/Src/Drivers/Src/usart_Driver.c **** 
  41:Core/Src/Drivers/Src/usart_Driver.c **** 
  42:Core/Src/Drivers/Src/usart_Driver.c **** void USART1_Init(void)
  43:Core/Src/Drivers/Src/usart_Driver.c **** {
 192              		.loc 1 43 1 is_stmt 1 view -0
 193              		.cfi_startproc
 194              		@ args = 0, pretend = 0, frame = 24
 195              		@ frame_needed = 0, uses_anonymous_args = 0
 196 0000 30B5     		push	{r4, r5, lr}
 197              	.LCFI5:
 198              		.cfi_def_cfa_offset 12
 199              		.cfi_offset 4, -12
 200              		.cfi_offset 5, -8
 201              		.cfi_offset 14, -4
 202 0002 87B0     		sub	sp, sp, #28
 203              	.LCFI6:
 204              		.cfi_def_cfa_offset 40
  44:Core/Src/Drivers/Src/usart_Driver.c **** 	__HAL_RCC_USART1_CLK_ENABLE();
 205              		.loc 1 44 2 view .LVU35
 206              	.LBB3:
 207              		.loc 1 44 2 view .LVU36
 208              		.loc 1 44 2 view .LVU37
 209 0004 274B     		ldr	r3, .L17
 210 0006 9A69     		ldr	r2, [r3, #24]
 211 0008 42F48042 		orr	r2, r2, #16384
 212 000c 9A61     		str	r2, [r3, #24]
 213              		.loc 1 44 2 view .LVU38
 214 000e 9A69     		ldr	r2, [r3, #24]
 215 0010 02F48042 		and	r2, r2, #16384
 216 0014 0092     		str	r2, [sp]
 217              		.loc 1 44 2 view .LVU39
 218 0016 009A     		ldr	r2, [sp]
 219              	.LBE3:
 220              		.loc 1 44 2 view .LVU40
  45:Core/Src/Drivers/Src/usart_Driver.c **** 	__HAL_RCC_GPIOA_CLK_ENABLE();
 221              		.loc 1 45 2 view .LVU41
 222              	.LBB4:
 223              		.loc 1 45 2 view .LVU42
 224              		.loc 1 45 2 view .LVU43
 225 0018 9A69     		ldr	r2, [r3, #24]
 226 001a 42F00402 		orr	r2, r2, #4
 227 001e 9A61     		str	r2, [r3, #24]
 228              		.loc 1 45 2 view .LVU44
 229 0020 9B69     		ldr	r3, [r3, #24]
ARM GAS  C:\Users\Lamp\AppData\Local\Temp\cczn73za.s 			page 6


 230 0022 03F00403 		and	r3, r3, #4
 231 0026 0193     		str	r3, [sp, #4]
 232              		.loc 1 45 2 view .LVU45
 233 0028 019B     		ldr	r3, [sp, #4]
 234              	.LBE4:
 235              		.loc 1 45 2 view .LVU46
  46:Core/Src/Drivers/Src/usart_Driver.c **** 
  47:Core/Src/Drivers/Src/usart_Driver.c **** 	GPIO_InitTypeDef GPIO_InitStruct = {0};
 236              		.loc 1 47 2 view .LVU47
 237              		.loc 1 47 19 is_stmt 0 view .LVU48
 238 002a 0024     		movs	r4, #0
 239 002c 0294     		str	r4, [sp, #8]
 240 002e 0394     		str	r4, [sp, #12]
 241 0030 0494     		str	r4, [sp, #16]
 242 0032 0594     		str	r4, [sp, #20]
  48:Core/Src/Drivers/Src/usart_Driver.c **** 
  49:Core/Src/Drivers/Src/usart_Driver.c **** 	// Cấu hình PA9 (USART1_TX)
  50:Core/Src/Drivers/Src/usart_Driver.c **** 	GPIO_InitStruct.Pin = GPIO_PIN_9;
 243              		.loc 1 50 2 is_stmt 1 view .LVU49
 244              		.loc 1 50 22 is_stmt 0 view .LVU50
 245 0034 4FF40073 		mov	r3, #512
 246 0038 0293     		str	r3, [sp, #8]
  51:Core/Src/Drivers/Src/usart_Driver.c **** 	GPIO_InitStruct.Mode = GPIO_MODE_AF_PP;
 247              		.loc 1 51 2 is_stmt 1 view .LVU51
 248              		.loc 1 51 23 is_stmt 0 view .LVU52
 249 003a 0223     		movs	r3, #2
 250 003c 0393     		str	r3, [sp, #12]
  52:Core/Src/Drivers/Src/usart_Driver.c **** 	GPIO_InitStruct.Speed = GPIO_SPEED_FREQ_HIGH;
 251              		.loc 1 52 2 is_stmt 1 view .LVU53
 252              		.loc 1 52 24 is_stmt 0 view .LVU54
 253 003e 0323     		movs	r3, #3
 254 0040 0593     		str	r3, [sp, #20]
  53:Core/Src/Drivers/Src/usart_Driver.c **** 	HAL_GPIO_Init(GPIOA, &GPIO_InitStruct);
 255              		.loc 1 53 2 is_stmt 1 view .LVU55
 256 0042 194D     		ldr	r5, .L17+4
 257 0044 02A9     		add	r1, sp, #8
 258 0046 2846     		mov	r0, r5
 259 0048 FFF7FEFF 		bl	HAL_GPIO_Init
 260              	.LVL8:
  54:Core/Src/Drivers/Src/usart_Driver.c **** 
  55:Core/Src/Drivers/Src/usart_Driver.c **** 	// Cấu hình PA10 (USART1_RX)
  56:Core/Src/Drivers/Src/usart_Driver.c **** 	GPIO_InitStruct.Pin = GPIO_PIN_10;
 261              		.loc 1 56 2 view .LVU56
 262              		.loc 1 56 22 is_stmt 0 view .LVU57
 263 004c 4FF48063 		mov	r3, #1024
 264 0050 0293     		str	r3, [sp, #8]
  57:Core/Src/Drivers/Src/usart_Driver.c **** 	GPIO_InitStruct.Mode = GPIO_MODE_INPUT;
 265              		.loc 1 57 2 is_stmt 1 view .LVU58
 266              		.loc 1 57 23 is_stmt 0 view .LVU59
 267 0052 0394     		str	r4, [sp, #12]
  58:Core/Src/Drivers/Src/usart_Driver.c **** 	GPIO_InitStruct.Pull = GPIO_NOPULL;
 268              		.loc 1 58 2 is_stmt 1 view .LVU60
 269              		.loc 1 58 23 is_stmt 0 view .LVU61
 270 0054 0494     		str	r4, [sp, #16]
  59:Core/Src/Drivers/Src/usart_Driver.c **** 	HAL_GPIO_Init(GPIOA, &GPIO_InitStruct);
 271              		.loc 1 59 2 is_stmt 1 view .LVU62
 272 0056 02A9     		add	r1, sp, #8
ARM GAS  C:\Users\Lamp\AppData\Local\Temp\cczn73za.s 			page 7


 273 0058 2846     		mov	r0, r5
 274 005a FFF7FEFF 		bl	HAL_GPIO_Init
 275              	.LVL9:
  60:Core/Src/Drivers/Src/usart_Driver.c **** 
  61:Core/Src/Drivers/Src/usart_Driver.c **** 	huart1.Instance = USART1;
 276              		.loc 1 61 2 view .LVU63
 277              		.loc 1 61 18 is_stmt 0 view .LVU64
 278 005e 1348     		ldr	r0, .L17+8
 279 0060 134B     		ldr	r3, .L17+12
 280 0062 0360     		str	r3, [r0]
  62:Core/Src/Drivers/Src/usart_Driver.c ****     huart1.Init.BaudRate = 115200;                       // Tốc độ baud
 281              		.loc 1 62 5 is_stmt 1 view .LVU65
 282              		.loc 1 62 26 is_stmt 0 view .LVU66
 283 0064 4FF4E133 		mov	r3, #115200
 284 0068 4360     		str	r3, [r0, #4]
  63:Core/Src/Drivers/Src/usart_Driver.c ****     huart1.Init.WordLength = UART_WORDLENGTH_8B;         // Độ dài từ: 8 bit
 285              		.loc 1 63 5 is_stmt 1 view .LVU67
 286              		.loc 1 63 28 is_stmt 0 view .LVU68
 287 006a 8460     		str	r4, [r0, #8]
  64:Core/Src/Drivers/Src/usart_Driver.c ****     huart1.Init.StopBits = UART_STOPBITS_1;              // 1 bit stop
 288              		.loc 1 64 5 is_stmt 1 view .LVU69
 289              		.loc 1 64 26 is_stmt 0 view .LVU70
 290 006c C460     		str	r4, [r0, #12]
  65:Core/Src/Drivers/Src/usart_Driver.c ****     huart1.Init.Parity = UART_PARITY_NONE;               // Không có parity
 291              		.loc 1 65 5 is_stmt 1 view .LVU71
 292              		.loc 1 65 24 is_stmt 0 view .LVU72
 293 006e 0461     		str	r4, [r0, #16]
  66:Core/Src/Drivers/Src/usart_Driver.c ****     huart1.Init.Mode = UART_MODE_TX_RX;                  // Chế độ truyền và nhận
 294              		.loc 1 66 5 is_stmt 1 view .LVU73
 295              		.loc 1 66 22 is_stmt 0 view .LVU74
 296 0070 0C23     		movs	r3, #12
 297 0072 4361     		str	r3, [r0, #20]
  67:Core/Src/Drivers/Src/usart_Driver.c ****     huart1.Init.HwFlowCtl = UART_HWCONTROL_NONE;         // Không sử dụng kiểm soát luồng
 298              		.loc 1 67 5 is_stmt 1 view .LVU75
 299              		.loc 1 67 27 is_stmt 0 view .LVU76
 300 0074 8461     		str	r4, [r0, #24]
  68:Core/Src/Drivers/Src/usart_Driver.c ****     huart1.Init.OverSampling = UART_OVERSAMPLING_16;     // Lấy mẫu quá mức
 301              		.loc 1 68 5 is_stmt 1 view .LVU77
 302              		.loc 1 68 30 is_stmt 0 view .LVU78
 303 0076 C461     		str	r4, [r0, #28]
  69:Core/Src/Drivers/Src/usart_Driver.c **** 
  70:Core/Src/Drivers/Src/usart_Driver.c ****     if (HAL_UART_Init(&huart1) != HAL_OK)
 304              		.loc 1 70 5 is_stmt 1 view .LVU79
 305              		.loc 1 70 9 is_stmt 0 view .LVU80
 306 0078 FFF7FEFF 		bl	HAL_UART_Init
 307              	.LVL10:
 308              		.loc 1 70 8 discriminator 1 view .LVU81
 309 007c 78B9     		cbnz	r0, .L16
 310              	.L14:
  71:Core/Src/Drivers/Src/usart_Driver.c ****     {
  72:Core/Src/Drivers/Src/usart_Driver.c ****         // Xử lý lỗi nếu cần
  73:Core/Src/Drivers/Src/usart_Driver.c ****         Error_Handler();
  74:Core/Src/Drivers/Src/usart_Driver.c ****     }
  75:Core/Src/Drivers/Src/usart_Driver.c **** 
  76:Core/Src/Drivers/Src/usart_Driver.c **** 	__HAL_UART_ENABLE_IT(&huart1, UART_IT_RXNE);
 311              		.loc 1 76 2 is_stmt 1 view .LVU82
 312 007e 0B4B     		ldr	r3, .L17+8
ARM GAS  C:\Users\Lamp\AppData\Local\Temp\cczn73za.s 			page 8


 313 0080 1A68     		ldr	r2, [r3]
 314 0082 D368     		ldr	r3, [r2, #12]
 315 0084 43F02003 		orr	r3, r3, #32
 316 0088 D360     		str	r3, [r2, #12]
  77:Core/Src/Drivers/Src/usart_Driver.c **** 
  78:Core/Src/Drivers/Src/usart_Driver.c **** 	HAL_NVIC_SetPriority(USART1_IRQn, 5, 0);
 317              		.loc 1 78 2 view .LVU83
 318 008a 0022     		movs	r2, #0
 319 008c 0521     		movs	r1, #5
 320 008e 2520     		movs	r0, #37
 321 0090 FFF7FEFF 		bl	HAL_NVIC_SetPriority
 322              	.LVL11:
  79:Core/Src/Drivers/Src/usart_Driver.c **** 	HAL_NVIC_EnableIRQ(USART1_IRQn);
 323              		.loc 1 79 2 view .LVU84
 324 0094 2520     		movs	r0, #37
 325 0096 FFF7FEFF 		bl	HAL_NVIC_EnableIRQ
 326              	.LVL12:
  80:Core/Src/Drivers/Src/usart_Driver.c **** }...
 327              		.loc 1 80 1 is_stmt 0 view .LVU85
 328 009a 07B0     		add	sp, sp, #28
 329              	.LCFI7:
 330              		.cfi_remember_state
 331              		.cfi_def_cfa_offset 12
 332              		@ sp needed
 333 009c 30BD     		pop	{r4, r5, pc}
 334              	.L16:
 335              	.LCFI8:
 336              		.cfi_restore_state
  73:Core/Src/Drivers/Src/usart_Driver.c ****         Error_Handler();
 337              		.loc 1 73 9 is_stmt 1 view .LVU86
 338 009e FFF7FEFF 		bl	Error_Handler
 339              	.LVL13:
 340 00a2 ECE7     		b	.L14
 341              	.L18:
 342              		.align	2
 343              	.L17:
 344 00a4 00100240 		.word	1073876992
 345 00a8 00080140 		.word	1073809408
 346 00ac 00000000 		.word	huart1
 347 00b0 00380140 		.word	1073821696
 348              		.cfi_endproc
 349              	.LFE72:
 351              		.global	BufferIndex
 352              		.section	.bss.BufferIndex,"aw",%nobits
 355              	BufferIndex:
 356 0000 00       		.space	1
 357              		.global	Buffer
 358              		.section	.bss.Buffer,"aw",%nobits
 359              		.align	2
 362              	Buffer:
 363 0000 00000000 		.space	100
 363      00000000 
 363      00000000 
 363      00000000 
 363      00000000 
 364              		.global	huart1
 365              		.section	.bss.huart1,"aw",%nobits
ARM GAS  C:\Users\Lamp\AppData\Local\Temp\cczn73za.s 			page 9


 366              		.align	2
 369              	huart1:
 370 0000 00000000 		.space	72
 370      00000000 
 370      00000000 
 370      00000000 
 370      00000000 
 371              		.text
 372              	.Letext0:
 373              		.file 2 "Drivers/CMSIS/Device/ST/STM32F1xx/Include/stm32f103xb.h"
 374              		.file 3 "C:/Arm-gnu-toolchain/arm-none-eabi/include/machine/_default_types.h"
 375              		.file 4 "C:/Arm-gnu-toolchain/arm-none-eabi/include/sys/_stdint.h"
 376              		.file 5 "C:/Arm-gnu-toolchain/lib/gcc/arm-none-eabi/13.3.1/include/stddef.h"
 377              		.file 6 "Drivers/STM32F1xx_HAL_Driver/Inc/stm32f1xx_hal_def.h"
 378              		.file 7 "Drivers/STM32F1xx_HAL_Driver/Inc/stm32f1xx_hal_gpio.h"
 379              		.file 8 "Drivers/STM32F1xx_HAL_Driver/Inc/stm32f1xx_hal_dma.h"
 380              		.file 9 "Drivers/STM32F1xx_HAL_Driver/Inc/stm32f1xx_hal_uart.h"
 381              		.file 10 "ThirdParty/FreeRTOS/portable/GCC/ARM_CM3/portmacro.h"
 382              		.file 11 "ThirdParty/FreeRTOS/include/queue.h"
 383              		.file 12 "Drivers/STM32F1xx_HAL_Driver/Inc/stm32f1xx_hal_cortex.h"
 384              		.file 13 "C:/Arm-gnu-toolchain/arm-none-eabi/include/string.h"
 385              		.file 14 "Core/Inc/main.h"
 386              		.file 15 "<built-in>"
ARM GAS  C:\Users\Lamp\AppData\Local\Temp\cczn73za.s 			page 10

